MODULE Linux x86_64 4457BF7F30B789B768D5D0E5757EC8370 crashapp
FUNC 5610 20 0 google_breakpad::LineReader::PopLine
FUNC 5630 29 0 sys_close
FUNC 565a 4a 0 google_breakpad::PageAllocator::FreeAll
FUNC 56a4 20 0 google_breakpad::ProcCpuInfoReader::GetValueAndLen
FUNC 56c4 20 0 google_breakpad::TypedMDRVA<MDRawDirectory>::CopyIndex
FUNC 56e4 20 0 google_breakpad::TypedMDRVA<unsigned int>::AllocateObjectAndArray
FUNC 5704 20 0 google_breakpad::TypedMDRVA<unsigned int>::CopyIndexAfterObject
FUNC 5724 1b7 0 MinidumpWriter::WriteFile
FUNC 58dc 3d 0 MinidumpWriter::WriteProcFile
FUNC 591a 20 0 google_breakpad::TypedMDRVA<MDString>::CopyIndexAfterObject
FUNC 593a 20 0 google_breakpad::TypedMDRVA<MDString>::AllocateObjectAndArray
FUNC 5a4d 18 0 crash
FUNC 5a65 18 0 dumpCallback
FUNC 5a7d 120 0 main
FUNC 5b9e c8 0 google_breakpad::MinidumpDescriptor::MinidumpDescriptor
FUNC 5c66 54 0 google_breakpad::MinidumpDescriptor::~MinidumpDescriptor
FUNC 5cc0 f8 0 google_breakpad::ExceptionHandler::InstallHandlersLocked
FUNC 5dc0 6c 0 google_breakpad::ExceptionHandler::RestoreHandlersLocked
FUNC 5e30 3c4 0 google_breakpad::ExceptionHandler::~ExceptionHandler
FUNC 6200 ce 0 google_breakpad::ExceptionHandler::SendContinueSignalToChild
FUNC 62d0 47f 0 google_breakpad::ExceptionHandler::GenerateDump
FUNC 6750 1a5 0 google_breakpad::ExceptionHandler::HandleSignal
FUNC 6900 42 0 google_breakpad::ExceptionHandler::HandleSignal
FUNC 6950 19c 0 google_breakpad::ExceptionHandler::SignalHandler
FUNC 6af0 56 0 google_breakpad::ExceptionHandler::SimulateSignalDelivery
FUNC 6b50 c6 0 google_breakpad::ExceptionHandler::WaitForContinueSignal
FUNC 6c20 82 0 google_breakpad::ExceptionHandler::DoDump
FUNC 6cb0 28 0 google_breakpad::ExceptionHandler::ThreadEntry
FUNC 6ce0 168 0 google_breakpad::ExceptionHandler::WriteMinidump
FUNC 6e50 a7 0 google_breakpad::ExceptionHandler::AddMappingInfo
FUNC 6f00 5d 0 google_breakpad::ExceptionHandler::RegisterAppMemory
FUNC 6f60 31 0 google_breakpad::ExceptionHandler::UnregisterAppMemory
FUNC 6fa0 178 0 google_breakpad::ExceptionHandler::WriteMinidumpForChild
FUNC 7120 339 0 google_breakpad::ExceptionHandler::ExceptionHandler
FUNC 7460 171 0 google_breakpad::ExceptionHandler::WriteMinidump
FUNC 75e0 19a 0 std::vector<google_breakpad::ExceptionHandler*, std::allocator<google_breakpad::ExceptionHandler*> >::_M_insert_aux
FUNC 7780 75 0 google_breakpad::MinidumpDescriptor::MinidumpDescriptor
FUNC 7800 2b2 0 google_breakpad::MinidumpDescriptor::UpdatePath
FUNC 7ac0 8c 0 google_breakpad::MinidumpDescriptor::operator=
FUNC 7b50 34 0 logger::write
FUNC 7b90 163e 0 google_breakpad::WriteMicrodump
FUNC 91d0 1af 0 google_breakpad::::ElfFileSoName
FUNC 9380 69 0 google_breakpad::LinuxDumper::~LinuxDumper
FUNC 93f0 12 0 google_breakpad::LinuxDumper::~LinuxDumper
FUNC 9410 c8 0 google_breakpad::LinuxDumper::GetMappingEffectiveNameAndPath
FUNC 94e0 114 0 google_breakpad::LinuxDumper::ReadAuxv
FUNC 9600 32 0 google_breakpad::LinuxDumper::Init
FUNC 9640 4b 0 google_breakpad::LinuxDumper::FindMapping
FUNC 9690 73 0 google_breakpad::LinuxDumper::GetStackInfo
FUNC 9710 1df 0 google_breakpad::LinuxDumper::HandleDeletedFileInMapping
FUNC 98f0 325 0 google_breakpad::LinuxDumper::ElfFileIdentifierForMapping
FUNC 9c20 4ca 0 google_breakpad::LinuxDumper::LinuxDumper
FUNC a0f0 8af 0 google_breakpad::LinuxDumper::EnumerateMappings
FUNC a9a0 2eb 0 std::vector<google_breakpad::MappingInfo*, google_breakpad::PageStdAllocator<google_breakpad::MappingInfo*> >::_M_insert_aux
FUNC ac90 42c 0 std::vector<long unsigned int, google_breakpad::PageStdAllocator<long unsigned int> >::_M_fill_insert
FUNC b0c0 438 0 std::vector<google_breakpad::MappingInfo*, google_breakpad::PageStdAllocator<google_breakpad::MappingInfo*> >::_M_fill_insert
FUNC b500 3 0 google_breakpad::LinuxPtraceDumper::IsPostMortem
FUNC b510 b7 0 google_breakpad::LinuxPtraceDumper::CopyFromProcess
FUNC b5d0 c8 0 google_breakpad::LinuxPtraceDumper::BuildProcPath
FUNC b6a0 4e8 0 google_breakpad::LinuxPtraceDumper::GetThreadInfoByIndex
FUNC bb90 ba 0 google_breakpad::LinuxPtraceDumper::ThreadsResume
FUNC bc50 20 0 google_breakpad::LinuxPtraceDumper::LinuxPtraceDumper
FUNC bc70 359 0 google_breakpad::LinuxPtraceDumper::EnumerateThreads
FUNC bfd0 22c 0 google_breakpad::LinuxPtraceDumper::ThreadsSuspend
FUNC c200 13 0 google_breakpad::LinuxPtraceDumper::~LinuxPtraceDumper
FUNC c220 20 0 google_breakpad::LinuxPtraceDumper::~LinuxPtraceDumper
FUNC c240 2e7 0 std::vector<int, google_breakpad::PageStdAllocator<int> >::_M_insert_aux
FUNC c530 42c 0 std::vector<int, google_breakpad::PageStdAllocator<int> >::_M_fill_insert
FUNC c960 4d 0 MinidumpWriter::~MinidumpWriter
FUNC c9b0 1e 0 google_breakpad::TypedMDRVA<MDRawDirectory>::CopyIndex
FUNC c9d0 cee 0 MinidumpWriter::WriteThreadListStream
FUNC d6c0 1e1c 0 MinidumpWriter::Dump
FUNC f4e0 3e0 0 WriteMinidumpImpl
FUNC f8c0 e1 0 google_breakpad::WriteMinidump
FUNC f9b0 e1 0 google_breakpad::WriteMinidump
FUNC faa0 2b 0 google_breakpad::WriteMinidump
FUNC fad0 2a 0 google_breakpad::WriteMinidump
FUNC fb00 2c 0 google_breakpad::WriteMinidump
FUNC fb30 2b 0 google_breakpad::WriteMinidump
FUNC fb60 452 0 google_breakpad::WriteMinidump
FUNC ffc0 302 0 google_breakpad::WriteMinidump
FUNC 102d0 13f 0 google_breakpad::PageAllocator::Alloc
FUNC 10410 249 0 google_breakpad::ProcCpuInfoReader::GetNextField
FUNC 10660 22 0 google_breakpad::TypedMDRVA<unsigned int>::~TypedMDRVA
FUNC 10690 22 0 google_breakpad::TypedMDRVA<MDRawContextAMD64>::~TypedMDRVA
FUNC 106c0 22 0 google_breakpad::TypedMDRVA<MDRawSystemInfo>::~TypedMDRVA
FUNC 106f0 22 0 google_breakpad::TypedMDRVA<MDRawLinkMap64>::~TypedMDRVA
FUNC 10720 22 0 google_breakpad::TypedMDRVA<MDRawDebug64>::~TypedMDRVA
FUNC 10750 307 0 std::vector<MDMemoryDescriptor, google_breakpad::PageStdAllocator<MDMemoryDescriptor> >::_M_insert_aux
FUNC 10a60 3c4 0 std::vector<char, google_breakpad::PageStdAllocator<char> >::_M_fill_insert
FUNC 10e30 1a 0 google_breakpad::MinidumpFileWriter::MinidumpFileWriter
FUNC 10e50 78 0 google_breakpad::MinidumpFileWriter::Open
FUNC 10ed0 2c 0 google_breakpad::MinidumpFileWriter::SetFile
FUNC 10f00 69 0 google_breakpad::MinidumpFileWriter::Close
FUNC 10f70 15 0 google_breakpad::MinidumpFileWriter::~MinidumpFileWriter
FUNC 10f90 b6 0 google_breakpad::MinidumpFileWriter::Allocate
FUNC 11050 ff 0 google_breakpad::MinidumpFileWriter::Copy
FUNC 11150 b4 0 google_breakpad::MinidumpFileWriter::CopyStringToMDString
FUNC 11210 b5 0 google_breakpad::MinidumpFileWriter::CopyStringToMDString
FUNC 112d0 41 0 google_breakpad::UntypedMDRVA::Allocate
FUNC 11320 88 0 google_breakpad::UntypedMDRVA::Copy
FUNC 113b0 c1 0 google_breakpad::MinidumpFileWriter::WriteMemory
FUNC 11480 5 0 google_breakpad::MinidumpFileWriter::WriteString
FUNC 11490 5 0 google_breakpad::MinidumpFileWriter::WriteString
FUNC 114a0 22 0 google_breakpad::TypedMDRVA<MDString>::~TypedMDRVA
FUNC 114d0 1d9 0 google_breakpad::MinidumpFileWriter::WriteStringCore<wchar_t>
FUNC 116b0 1d7 0 google_breakpad::MinidumpFileWriter::WriteStringCore<char>
FUNC 11890 91 0 google_breakpad::UTF8ToUTF16Char
FUNC 11930 56 0 google_breakpad::UTF32ToUTF16Char
FUNC 11990 15b 0 google_breakpad::UTF16ToUTF8
FUNC 11af0 ed 0 google_breakpad::UTF32ToUTF16
FUNC 11be0 ed 0 google_breakpad::UTF8ToUTF16
FUNC 11cd0 283 0 std::vector<short unsigned int, std::allocator<short unsigned int> >::_M_fill_insert
FUNC 11f60 1f 0 google_breakpad::IsValidElf
FUNC 11f80 5 0 google_breakpad::ElfClass
FUNC 11f90 44f 0 google_breakpad::FindElfSection
FUNC 123e0 26f 0 google_breakpad::FindElfSegment
FUNC 12650 13 0 google_breakpad::FileID::FileID
FUNC 12670 1ff 0 google_breakpad::FileID::ElfFileIdentifierFromMappedFile
FUNC 12870 5f 0 google_breakpad::FileID::ElfFileIdentifier
FUNC 128d0 f8 0 google_breakpad::FileID::ConvertIdentifierToString
FUNC 129d0 73 0 CreateGUID
FUNC 12a50 ad 0 GUIDToString
FUNC 12b00 16 0 GUIDGenerator::InitOnceImpl
FUNC 12b20 1e 0 my_strlen
FUNC 12b40 33 0 my_strcmp
FUNC 12b80 56 0 my_strncmp
FUNC 12be0 4c 0 my_strtoui
FUNC 12c30 36 0 my_uint_len
FUNC 12c70 3a 0 my_uitos
FUNC 12cb0 2b 0 my_strchr
FUNC 12ce0 26 0 my_strrchr
FUNC 12d10 2b 0 my_memchr
FUNC 12d40 64 0 my_read_hex_ptr
FUNC 12db0 3a 0 my_read_decimal_ptr
FUNC 12df0 1f 0 my_memset
FUNC 12e10 38 0 my_strlcpy
FUNC 12e50 45 0 my_strlcat
FUNC 12ea0 46 0 my_isspace
FUNC 12ef0 10 0 google_breakpad::MemoryMappedFile::MemoryMappedFile
FUNC 12f00 4b 0 google_breakpad::MemoryMappedFile::Unmap
FUNC 12f50 5 0 google_breakpad::MemoryMappedFile::~MemoryMappedFile
FUNC 12f60 17f 0 google_breakpad::MemoryMappedFile::Map
FUNC 130e0 14 0 google_breakpad::MemoryMappedFile::MemoryMappedFile
FUNC 13100 40 0 google_breakpad::SafeReadLink
FUNC 13140 f 0 google_breakpad::::CrashGenerationClientImpl::~CrashGenerationClientImpl
FUNC 13150 13 0 google_breakpad::::CrashGenerationClientImpl::~CrashGenerationClientImpl
FUNC 13170 1c5 0 google_breakpad::::CrashGenerationClientImpl::RequestDump
FUNC 13340 24 0 google_breakpad::CrashGenerationClient::TryCreate
FUNC 13370 f 0 google_breakpad::CrashGenerationClient::~CrashGenerationClient
FUNC 13380 13 0 google_breakpad::CrashGenerationClient::~CrashGenerationClient
FUNC 133a0 155 0 google_breakpad::SeccompUnwinder::PopSeccompStackFrame
FUNC 13500 8 0 google_breakpad::ThreadInfo::GetInstructionPointer
FUNC 13510 386 0 google_breakpad::ThreadInfo::FillCPUContext
FUNC 138a0 8 0 google_breakpad::UContextReader::GetStackPointer
FUNC 138b0 8 0 google_breakpad::UContextReader::GetInstructionPointer
FUNC 138c0 2e6 0 google_breakpad::UContextReader::FillCPUContext
FUNC 13bb0 d7 0 isLegalUTF8
FUNC 13c90 105 0 ConvertUTF32toUTF16
FUNC 13da0 e6 0 ConvertUTF16toUTF32
FUNC 13e90 1fa 0 ConvertUTF16toUTF8
FUNC 14090 2b 0 isLegalUTF8Sequence
FUNC 140c0 27f 0 ConvertUTF8toUTF16
FUNC 14340 1c3 0 ConvertUTF32toUTF8
FUNC 14510 2a7 0 ConvertUTF8toUTF32
PUBLIC 5230 0 _init
PUBLIC 595a 0 _start
PUBLIC 5a4d 0 _Z5crashv
PUBLIC 5b9e 0 _ZN15google_breakpad18MinidumpDescriptorC2ERKSs
PUBLIC 5c66 0 _ZN15google_breakpad18MinidumpDescriptorD1Ev
PUBLIC 5cc0 0 _ZN15google_breakpad16ExceptionHandler21InstallHandlersLockedEv
PUBLIC 5dc0 0 _ZN15google_breakpad16ExceptionHandler21RestoreHandlersLockedEv
PUBLIC 5e30 0 _ZN15google_breakpad16ExceptionHandlerD1Ev
PUBLIC 6200 0 _ZN15google_breakpad16ExceptionHandler25SendContinueSignalToChildEv
PUBLIC 62d0 0 _ZN15google_breakpad16ExceptionHandler12GenerateDumpEPNS0_12CrashContextE
PUBLIC 6900 0 _ZN15google_breakpad16ExceptionHandler12HandleSignalEiP9siginfo_tPv
PUBLIC 6950 0 _ZN15google_breakpad16ExceptionHandler13SignalHandlerEiP9siginfo_tPv
PUBLIC 6af0 0 _ZN15google_breakpad16ExceptionHandler22SimulateSignalDeliveryEi
PUBLIC 6b50 0 _ZN15google_breakpad16ExceptionHandler21WaitForContinueSignalEv
PUBLIC 6c20 0 _ZN15google_breakpad16ExceptionHandler6DoDumpEiPKvm
PUBLIC 6cb0 0 _ZN15google_breakpad16ExceptionHandler11ThreadEntryEPv
PUBLIC 6ce0 0 _ZN15google_breakpad16ExceptionHandler13WriteMinidumpEv
PUBLIC 6e50 0 _ZN15google_breakpad16ExceptionHandler14AddMappingInfoERKSsPKhmmm
PUBLIC 6f00 0 _ZN15google_breakpad16ExceptionHandler17RegisterAppMemoryEPvm
PUBLIC 6f60 0 _ZN15google_breakpad16ExceptionHandler19UnregisterAppMemoryEPv
PUBLIC 6fa0 0 _ZN15google_breakpad16ExceptionHandler21WriteMinidumpForChildEiiRKSsPFbRKNS_18MinidumpDescriptorEPvbES6_
PUBLIC 7120 0 _ZN15google_breakpad16ExceptionHandlerC2ERKNS_18MinidumpDescriptorEPFbPvEPFbS3_S4_bES4_bi
PUBLIC 7460 0 _ZN15google_breakpad16ExceptionHandler13WriteMinidumpERKSsPFbRKNS_18MinidumpDescriptorEPvbES6_
PUBLIC 75e0 0 _ZNSt6vectorIPN15google_breakpad16ExceptionHandlerESaIS2_EE13_M_insert_auxEN9__gnu_cxx17__normal_iteratorIPS2_S4_EERKS2_
PUBLIC 7780 0 _ZN15google_breakpad18MinidumpDescriptorC2ERKS0_
PUBLIC 7800 0 _ZN15google_breakpad18MinidumpDescriptor10UpdatePathEv
PUBLIC 7ac0 0 _ZN15google_breakpad18MinidumpDescriptoraSERKS0_
PUBLIC 7b50 0 _ZN6logger5writeEPKcm
PUBLIC 7b90 0 _ZN15google_breakpad14WriteMicrodumpEiPKvmRKSt4listINS_12MappingEntryESaIS3_EE
PUBLIC 9380 0 _ZN15google_breakpad11LinuxDumperD2Ev
PUBLIC 93f0 0 _ZN15google_breakpad11LinuxDumperD0Ev
PUBLIC 9410 0 _ZN15google_breakpad11LinuxDumper30GetMappingEffectiveNameAndPathERKNS_11MappingInfoEPcmS4_m
PUBLIC 94e0 0 _ZN15google_breakpad11LinuxDumper8ReadAuxvEv
PUBLIC 9600 0 _ZN15google_breakpad11LinuxDumper4InitEv
PUBLIC 9640 0 _ZNK15google_breakpad11LinuxDumper11FindMappingEPKv
PUBLIC 9690 0 _ZN15google_breakpad11LinuxDumper12GetStackInfoEPPKvPmm
PUBLIC 9710 0 _ZNK15google_breakpad11LinuxDumper26HandleDeletedFileInMappingEPc
PUBLIC 98f0 0 _ZN15google_breakpad11LinuxDumper27ElfFileIdentifierForMappingERKNS_11MappingInfoEbjPh
PUBLIC 9c20 0 _ZN15google_breakpad11LinuxDumperC1Ei
PUBLIC a0f0 0 _ZN15google_breakpad11LinuxDumper17EnumerateMappingsEv
PUBLIC a9a0 0 _ZNSt6vectorIPN15google_breakpad11MappingInfoENS0_16PageStdAllocatorIS2_EEE13_M_insert_auxEN9__gnu_cxx17__normal_iteratorIPS2_S5_EERKS2_
PUBLIC ac90 0 _ZNSt6vectorImN15google_breakpad16PageStdAllocatorImEEE14_M_fill_insertEN9__gnu_cxx17__normal_iteratorIPmS3_EEmRKm
PUBLIC b0c0 0 _ZNSt6vectorIPN15google_breakpad11MappingInfoENS0_16PageStdAllocatorIS2_EEE14_M_fill_insertEN9__gnu_cxx17__normal_iteratorIPS2_S5_EEmRKS2_
PUBLIC b500 0 _ZNK15google_breakpad17LinuxPtraceDumper12IsPostMortemEv
PUBLIC b510 0 _ZN15google_breakpad17LinuxPtraceDumper15CopyFromProcessEPviPKvm
PUBLIC b5d0 0 _ZNK15google_breakpad17LinuxPtraceDumper13BuildProcPathEPciPKc
PUBLIC b6a0 0 _ZN15google_breakpad17LinuxPtraceDumper20GetThreadInfoByIndexEmPNS_10ThreadInfoE
PUBLIC bb90 0 _ZN15google_breakpad17LinuxPtraceDumper13ThreadsResumeEv
PUBLIC bc50 0 _ZN15google_breakpad17LinuxPtraceDumperC1Ei
PUBLIC bc70 0 _ZN15google_breakpad17LinuxPtraceDumper16EnumerateThreadsEv
PUBLIC bfd0 0 _ZN15google_breakpad17LinuxPtraceDumper14ThreadsSuspendEv
PUBLIC c200 0 _ZN15google_breakpad17LinuxPtraceDumperD2Ev
PUBLIC c220 0 _ZN15google_breakpad17LinuxPtraceDumperD0Ev
PUBLIC c240 0 _ZNSt6vectorIiN15google_breakpad16PageStdAllocatorIiEEE13_M_insert_auxEN9__gnu_cxx17__normal_iteratorIPiS3_EERKi
PUBLIC c530 0 _ZNSt6vectorIiN15google_breakpad16PageStdAllocatorIiEEE14_M_fill_insertEN9__gnu_cxx17__normal_iteratorIPiS3_EEmRKi
PUBLIC f8c0 0 _ZN15google_breakpad13WriteMinidumpEPKciPKvm
PUBLIC f9b0 0 _ZN15google_breakpad13WriteMinidumpEiiPKvm
PUBLIC faa0 0 _ZN15google_breakpad13WriteMinidumpEPKciPKvmRKSt4listINS_12MappingEntryESaIS5_EERKS4_INS_9AppMemoryESaISA_EE
PUBLIC fad0 0 _ZN15google_breakpad13WriteMinidumpEiiPKvmRKSt4listINS_12MappingEntryESaIS3_EERKS2_INS_9AppMemoryESaIS8_EE
PUBLIC fb00 0 _ZN15google_breakpad13WriteMinidumpEPKcliPKvmRKSt4listINS_12MappingEntryESaIS5_EERKS4_INS_9AppMemoryESaISA_EE
PUBLIC fb30 0 _ZN15google_breakpad13WriteMinidumpEiliPKvmRKSt4listINS_12MappingEntryESaIS3_EERKS2_INS_9AppMemoryESaIS8_EE
PUBLIC fb60 0 _ZN15google_breakpad13WriteMinidumpEPKcii
PUBLIC ffc0 0 _ZN15google_breakpad13WriteMinidumpEPKcRKSt4listINS_12MappingEntryESaIS3_EERKS2_INS_9AppMemoryESaIS8_EEPNS_11LinuxDumperE
PUBLIC 102d0 0 _ZN15google_breakpad13PageAllocator5AllocEm
PUBLIC 10410 0 _ZN15google_breakpad17ProcCpuInfoReader12GetNextFieldEPPKc
PUBLIC 10660 0 _ZN15google_breakpad10TypedMDRVAIjED1Ev
PUBLIC 10690 0 _ZN15google_breakpad10TypedMDRVAI17MDRawContextAMD64ED1Ev
PUBLIC 106c0 0 _ZN15google_breakpad10TypedMDRVAI15MDRawSystemInfoED1Ev
PUBLIC 106f0 0 _ZN15google_breakpad10TypedMDRVAI14MDRawLinkMap64ED1Ev
PUBLIC 10720 0 _ZN15google_breakpad10TypedMDRVAI12MDRawDebug64ED1Ev
PUBLIC 10750 0 _ZNSt6vectorI18MDMemoryDescriptorN15google_breakpad16PageStdAllocatorIS0_EEE13_M_insert_auxEN9__gnu_cxx17__normal_iteratorIPS0_S4_EERKS0_
PUBLIC 10a60 0 _ZNSt6vectorIcN15google_breakpad16PageStdAllocatorIcEEE14_M_fill_insertEN9__gnu_cxx17__normal_iteratorIPcS3_EEmRKc
PUBLIC 10e30 0 _ZN15google_breakpad18MinidumpFileWriterC1Ev
PUBLIC 10e50 0 _ZN15google_breakpad18MinidumpFileWriter4OpenEPKc
PUBLIC 10ed0 0 _ZN15google_breakpad18MinidumpFileWriter7SetFileEi
PUBLIC 10f00 0 _ZN15google_breakpad18MinidumpFileWriter5CloseEv
PUBLIC 10f70 0 _ZN15google_breakpad18MinidumpFileWriterD1Ev
PUBLIC 10f90 0 _ZN15google_breakpad18MinidumpFileWriter8AllocateEm
PUBLIC 11050 0 _ZN15google_breakpad18MinidumpFileWriter4CopyEjPKvl
PUBLIC 11150 0 _ZN15google_breakpad18MinidumpFileWriter20CopyStringToMDStringEPKcjPNS_10TypedMDRVAI8MDStringEE
PUBLIC 11210 0 _ZN15google_breakpad18MinidumpFileWriter20CopyStringToMDStringEPKwjPNS_10TypedMDRVAI8MDStringEE
PUBLIC 112d0 0 _ZN15google_breakpad12UntypedMDRVA8AllocateEm
PUBLIC 11320 0 _ZN15google_breakpad12UntypedMDRVA4CopyEjPKvm
PUBLIC 113b0 0 _ZN15google_breakpad18MinidumpFileWriter11WriteMemoryEPKvmP18MDMemoryDescriptor
PUBLIC 11480 0 _ZN15google_breakpad18MinidumpFileWriter11WriteStringEPKwjP20MDLocationDescriptor
PUBLIC 11490 0 _ZN15google_breakpad18MinidumpFileWriter11WriteStringEPKcjP20MDLocationDescriptor
PUBLIC 114a0 0 _ZN15google_breakpad10TypedMDRVAI8MDStringED1Ev
PUBLIC 114d0 0 _ZN15google_breakpad18MinidumpFileWriter15WriteStringCoreIwEEbPKT_jP20MDLocationDescriptor
PUBLIC 116b0 0 _ZN15google_breakpad18MinidumpFileWriter15WriteStringCoreIcEEbPKT_jP20MDLocationDescriptor
PUBLIC 11890 0 _ZN15google_breakpad15UTF8ToUTF16CharEPKciPt
PUBLIC 11930 0 _ZN15google_breakpad16UTF32ToUTF16CharEwPt
PUBLIC 11990 0 _ZN15google_breakpad11UTF16ToUTF8ERKSt6vectorItSaItEEb
PUBLIC 11af0 0 _ZN15google_breakpad12UTF32ToUTF16EPKwPSt6vectorItSaItEE
PUBLIC 11be0 0 _ZN15google_breakpad11UTF8ToUTF16EPKcPSt6vectorItSaItEE
PUBLIC 11cd0 0 _ZNSt6vectorItSaItEE14_M_fill_insertEN9__gnu_cxx17__normal_iteratorIPtS1_EEmRKt
PUBLIC 11f60 0 _ZN15google_breakpad10IsValidElfEPKv
PUBLIC 11f80 0 _ZN15google_breakpad8ElfClassEPKv
PUBLIC 11f90 0 _ZN15google_breakpad14FindElfSectionEPKvPKcjPS1_PmPi
PUBLIC 123e0 0 _ZN15google_breakpad14FindElfSegmentEPKvjPS1_PmPi
PUBLIC 12650 0 _ZN15google_breakpad6FileIDC1EPKc
PUBLIC 12670 0 _ZN15google_breakpad6FileID31ElfFileIdentifierFromMappedFileEPKvPh
PUBLIC 12870 0 _ZN15google_breakpad6FileID17ElfFileIdentifierEPh
PUBLIC 128d0 0 _ZN15google_breakpad6FileID25ConvertIdentifierToStringEPKhPci
PUBLIC 129d0 0 _Z10CreateGUIDP6MDGUID
PUBLIC 12a50 0 _Z12GUIDToStringPK6MDGUIDPci
PUBLIC 12b00 0 _ZN13GUIDGenerator12InitOnceImplEv
PUBLIC 12ef0 0 _ZN15google_breakpad16MemoryMappedFileC1Ev
PUBLIC 12f00 0 _ZN15google_breakpad16MemoryMappedFile5UnmapEv
PUBLIC 12f50 0 _ZN15google_breakpad16MemoryMappedFileD2Ev
PUBLIC 12f60 0 _ZN15google_breakpad16MemoryMappedFile3MapEPKcm
PUBLIC 130e0 0 _ZN15google_breakpad16MemoryMappedFileC2EPKcm
PUBLIC 13100 0 _ZN15google_breakpad12SafeReadLinkEPKcPcm
PUBLIC 13340 0 _ZN15google_breakpad21CrashGenerationClient9TryCreateEi
PUBLIC 13370 0 _ZN15google_breakpad21CrashGenerationClientD1Ev
PUBLIC 13380 0 _ZN15google_breakpad21CrashGenerationClientD0Ev
PUBLIC 133a0 0 _ZN15google_breakpad15SeccompUnwinder20PopSeccompStackFrameEP17MDRawContextAMD64RK11MDRawThreadPh
PUBLIC 13500 0 _ZNK15google_breakpad10ThreadInfo21GetInstructionPointerEv
PUBLIC 13510 0 _ZNK15google_breakpad10ThreadInfo14FillCPUContextEP17MDRawContextAMD64
PUBLIC 138a0 0 _ZN15google_breakpad14UContextReader15GetStackPointerEPK8ucontext
PUBLIC 138b0 0 _ZN15google_breakpad14UContextReader21GetInstructionPointerEPK8ucontext
PUBLIC 138c0 0 _ZN15google_breakpad14UContextReader14FillCPUContextEP17MDRawContextAMD64PK8ucontextPK13_libc_fpstate
PUBLIC 147c0 0 __libc_csu_init
PUBLIC 14830 0 __libc_csu_fini
PUBLIC 14834 0 _fini
STACK CFI INIT 595a 2a .cfa: $rsp 8 + .ra: .cfa -8 + ^
STACK CFI INIT 5250 3c0 .cfa: $rsp 16 + .ra: .cfa -8 + ^
STACK CFI 5256 .cfa: $rsp 24 +
STACK CFI INIT 5b9e c8 .cfa: $rsp 8 + .ra: .cfa -8 + ^
STACK CFI 5b9f $rbp: .cfa -16 + ^ .cfa: $rsp 16 +
STACK CFI 5ba2 .cfa: $rbp 16 +
STACK CFI 5ba7 $rbx: .cfa -24 + ^
STACK CFI 5c65 .cfa: $rsp 8 +
STACK CFI INIT 5a4d 18 .cfa: $rsp 8 + .ra: .cfa -8 + ^
STACK CFI 5a4e $rbp: .cfa -16 + ^ .cfa: $rsp 16 +
STACK CFI 5a51 .cfa: $rbp 16 +
STACK CFI 5a64 .cfa: $rsp 8 +
STACK CFI INIT 5a65 18 .cfa: $rsp 8 + .ra: .cfa -8 + ^
STACK CFI 5a66 $rbp: .cfa -16 + ^ .cfa: $rsp 16 +
STACK CFI 5a69 .cfa: $rbp 16 +
STACK CFI 5a7c .cfa: $rsp 8 +
STACK CFI INIT 5c66 54 .cfa: $rsp 8 + .ra: .cfa -8 + ^
STACK CFI 5c67 $rbp: .cfa -16 + ^ .cfa: $rsp 16 +
STACK CFI 5c6a .cfa: $rbp 16 +
STACK CFI 5c6f $rbx: .cfa -24 + ^
STACK CFI 5cb9 .cfa: $rsp 8 +
STACK CFI INIT 5a7d 120 .cfa: $rsp 8 + .ra: .cfa -8 + ^
STACK CFI 5a7e $rbp: .cfa -16 + ^ .cfa: $rsp 16 +
STACK CFI 5a81 .cfa: $rbp 16 +
STACK CFI 5a89 $rbx: .cfa -24 + ^
STACK CFI 5b9c .cfa: $rsp 8 +
STACK CFI INIT 5cc0 f8 .cfa: $rsp 8 + .ra: .cfa -8 + ^
STACK CFI 5ccf $r13: .cfa -16 + ^ .cfa: $rsp 16 +
STACK CFI 5cd1 $r12: .cfa -24 + ^ .cfa: $rsp 24 +
STACK CFI 5cd9 $rbp: .cfa -32 + ^ .cfa: $rsp 32 +
STACK CFI 5ce1 $rbx: .cfa -40 + ^ .cfa: $rsp 40 +
STACK CFI 5cef .cfa: $rsp 208 +
STACK CFI 5d8b .cfa: $rsp 40 +
STACK CFI 5d91 $rbx: $rbx .cfa: $rsp 32 +
STACK CFI 5d92 $rbp: $rbp .cfa: $rsp 24 +
STACK CFI 5d94 $r12: $r12 .cfa: $rsp 16 +
STACK CFI 5d96 $r13: $r13 .cfa: $rsp 8 +
STACK CFI 5da8 $r12: .cfa -24 + ^ $r13: .cfa -16 + ^ $rbp: .cfa -32 + ^ $rbx: .cfa -40 + ^ .cfa: $rsp 208 +
STACK CFI 5daf .cfa: $rsp 40 +
STACK CFI 5db2 $rbx: $rbx .cfa: $rsp 32 +
STACK CFI 5db3 $rbp: $rbp .cfa: $rsp 24 +
STACK CFI 5db5 $r12: $r12 .cfa: $rsp 16 +
STACK CFI 5db7 $r13: $r13 .cfa: $rsp 8 +
STACK CFI INIT 5dc0 6c .cfa: $rsp 8 + .ra: .cfa -8 + ^
STACK CFI 5dcb $r13: .cfa -16 + ^ .cfa: $rsp 16 +
STACK CFI 5dd4 $r12: .cfa -24 + ^ .cfa: $rsp 24 +
STACK CFI 5dd5 $rbp: .cfa -32 + ^ .cfa: $rsp 32 +
STACK CFI 5ddd $rbx: .cfa -40 + ^ .cfa: $rsp 40 +
STACK CFI 5de8 .cfa: $rsp 48 +
STACK CFI 5e18 .cfa: $rsp 40 +
STACK CFI 5e19 $rbx: $rbx .cfa: $rsp 32 +
STACK CFI 5e1a $rbp: $rbp .cfa: $rsp 24 +
STACK CFI 5e1c $r12: $r12 .cfa: $rsp 16 +
STACK CFI 5e1e $r13: $r13 .cfa: $rsp 8 +
STACK CFI 5e20 $r12: .cfa -24 + ^ $r13: .cfa -16 + ^ $rbp: .cfa -32 + ^ $rbx: .cfa -40 + ^ .cfa: $rsp 48 +
STACK CFI INIT 5e30 3c4 .cfa: $rsp 8 + .ra: .cfa -8 + ^
STACK CFI 5e32 $r13: .cfa -16 + ^ .cfa: $rsp 16 +
STACK CFI 5e34 $r12: .cfa -24 + ^ .cfa: $rsp 24 +
STACK CFI 5e35 $rbp: .cfa -32 + ^ .cfa: $rsp 32 +
STACK CFI 5e36 $rbx: .cfa -40 + ^ .cfa: $rsp 40 +
STACK CFI 5e44 .cfa: $rsp 112 +
STACK CFI 5fdc .cfa: $rsp 40 +
STACK CFI 5fdd .cfa: $rsp 32 +
STACK CFI 5fde .cfa: $rsp 24 +
STACK CFI 5fe0 .cfa: $rsp 16 +
STACK CFI 5fe2 .cfa: $rsp 8 +
STACK CFI 5fe8 .cfa: $rsp 112 +
STACK CFI INIT 6200 ce .cfa: $rsp 8 + .ra: .cfa -8 + ^
STACK CFI 6202 $r15: .cfa -16 + ^ .cfa: $rsp 16 +
STACK CFI 6204 $r14: .cfa -24 + ^ .cfa: $rsp 24 +
STACK CFI 6209 $r13: .cfa -32 + ^ .cfa: $rsp 32 +
STACK CFI 6212 $r12: .cfa -40 + ^ .cfa: $rsp 40 +
STACK CFI 6219 $rbp: .cfa -48 + ^ .cfa: $rsp 48 +
STACK CFI 621f $rbx: .cfa -56 + ^ .cfa: $rsp 56 +
STACK CFI 6223 .cfa: $rsp 64 +
STACK CFI 628d .cfa: $rsp 56 +
STACK CFI 629a .cfa: $rsp 48 +
STACK CFI 629b .cfa: $rsp 40 +
STACK CFI 629d .cfa: $rsp 32 +
STACK CFI 629f .cfa: $rsp 24 +
STACK CFI 62a1 .cfa: $rsp 16 +
STACK CFI 62a3 .cfa: $rsp 8 +
STACK CFI 62b0 .cfa: $rsp 64 +
STACK CFI 62b9 .cfa: $rsp 56 +
STACK CFI 62ba .cfa: $rsp 48 +
STACK CFI 62bb .cfa: $rsp 40 +
STACK CFI 62bd .cfa: $rsp 32 +
STACK CFI 62bf .cfa: $rsp 24 +
STACK CFI 62c1 .cfa: $rsp 16 +
STACK CFI 62c3 .cfa: $rsp 8 +
STACK CFI 62c4 .cfa: $rsp 64 +
STACK CFI INIT 62d0 47f .cfa: $rsp 8 + .ra: .cfa -8 + ^
STACK CFI 62d2 $r15: .cfa -16 + ^ .cfa: $rsp 16 +
STACK CFI 62d4 $r14: .cfa -24 + ^ .cfa: $rsp 24 +
STACK CFI 62d6 $r13: .cfa -32 + ^ .cfa: $rsp 32 +
STACK CFI 62d8 $r12: .cfa -40 + ^ .cfa: $rsp 40 +
STACK CFI 62d9 $rbp: .cfa -48 + ^ .cfa: $rsp 48 +
STACK CFI 62dd $rbx: .cfa -56 + ^ .cfa: $rsp 56 +
STACK CFI 62e4 .cfa: $rsp 144 +
STACK CFI 62fe .cfa: $rsp 56 +
STACK CFI 6301 .cfa: $rsp 48 +
STACK CFI 6302 .cfa: $rsp 40 +
STACK CFI 6304 .cfa: $rsp 32 +
STACK CFI 6306 .cfa: $rsp 24 +
STACK CFI 6308 .cfa: $rsp 16 +
STACK CFI 630a .cfa: $rsp 8 +
STACK CFI 6310 .cfa: $rsp 144 +
STACK CFI INIT 6750 1a5 .cfa: $rsp 8 + .ra: .cfa -8 + ^
STACK CFI 6752 $r13: .cfa -16 + ^ .cfa: $rsp 16 +
STACK CFI 6757 $r12: .cfa -24 + ^ .cfa: $rsp 24 +
STACK CFI 675b $rbp: .cfa -32 + ^ .cfa: $rsp 32 +
STACK CFI 675c $rbx: .cfa -40 + ^ .cfa: $rsp 40 +
STACK CFI 6766 .cfa: $rsp 1632 +
STACK CFI 68ac .cfa: $rsp 40 +
STACK CFI 68ad .cfa: $rsp 32 +
STACK CFI 68ae .cfa: $rsp 24 +
STACK CFI 68b0 .cfa: $rsp 16 +
STACK CFI 68b2 .cfa: $rsp 8 +
STACK CFI 68b8 .cfa: $rsp 1632 +
STACK CFI INIT 6900 42 .cfa: $rsp 8 + .ra: .cfa -8 + ^
STACK CFI 6902 $r12: .cfa -16 + ^ .cfa: $rsp 16 +
STACK CFI 6906 $rbp: .cfa -24 + ^ .cfa: $rsp 24 +
STACK CFI 690a $rbx: .cfa -32 + ^ .cfa: $rsp 32 +
STACK CFI 6920 .cfa: $rsp 24 +
STACK CFI 6921 .cfa: $rsp 16 +
STACK CFI 6925 .cfa: $rsp 8 +
STACK CFI 6930 .cfa: $rsp 32 +
STACK CFI 693a .cfa: $rsp 24 +
STACK CFI 693b .cfa: $rsp 16 +
STACK CFI 693d .cfa: $rsp 8 +
STACK CFI INIT 6950 19c .cfa: $rsp 8 + .ra: .cfa -8 + ^
STACK CFI 6952 $r14: .cfa -16 + ^ .cfa: $rsp 16 +
STACK CFI 6957 $r13: .cfa -24 + ^ .cfa: $rsp 24 +
STACK CFI 695c $r12: .cfa -32 + ^ .cfa: $rsp 32 +
STACK CFI 6967 $rbp: .cfa -40 + ^ .cfa: $rsp 40 +
STACK CFI 6968 $rbx: .cfa -48 + ^ .cfa: $rsp 48 +
STACK CFI 696f .cfa: $rsp 208 +
STACK CFI 6a22 .cfa: $rsp 48 +
STACK CFI 6a23 .cfa: $rsp 40 +
STACK CFI 6a24 .cfa: $rsp 32 +
STACK CFI 6a26 .cfa: $rsp 24 +
STACK CFI 6a28 .cfa: $rsp 16 +
STACK CFI 6a2a .cfa: $rsp 8 +
STACK CFI 6a30 .cfa: $rsp 208 +
STACK CFI 6a93 .cfa: $rsp 48 +
STACK CFI 6a94 .cfa: $rsp 40 +
STACK CFI 6a95 .cfa: $rsp 32 +
STACK CFI 6a97 .cfa: $rsp 24 +
STACK CFI 6a99 .cfa: $rsp 16 +
STACK CFI 6a9b .cfa: $rsp 8 +
STACK CFI 6aa0 .cfa: $rsp 208 +
STACK CFI INIT 6af0 56 .cfa: $rsp 8 + .ra: .cfa -8 + ^
STACK CFI 6af7 .cfa: $rsp 1104 +
STACK CFI 6b45 .cfa: $rsp 8 +
STACK CFI INIT 6b50 c6 .cfa: $rsp 8 + .ra: .cfa -8 + ^
STACK CFI 6b52 $r15: .cfa -16 + ^ .cfa: $rsp 16 +
STACK CFI 6b54 $r14: .cfa -24 + ^ .cfa: $rsp 24 +
STACK CFI 6b59 $r13: .cfa -32 + ^ .cfa: $rsp 32 +
STACK CFI 6b5b $r12: .cfa -40 + ^ .cfa: $rsp 40 +
STACK CFI 6b62 $rbp: .cfa -48 + ^ .cfa: $rsp 48 +
STACK CFI 6b65 $rbx: .cfa -56 + ^ .cfa: $rsp 56 +
STACK CFI 6b69 .cfa: $rsp 80 +
STACK CFI 6be6 .cfa: $rsp 56 +
STACK CFI 6be7 .cfa: $rsp 48 +
STACK CFI 6be8 .cfa: $rsp 40 +
STACK CFI 6bea .cfa: $rsp 32 +
STACK CFI 6bec .cfa: $rsp 24 +
STACK CFI 6bee .cfa: $rsp 16 +
STACK CFI 6bf0 .cfa: $rsp 8 +
STACK CFI 6bf8 .cfa: $rsp 80 +
STACK CFI 6c01 .cfa: $rsp 56 +
STACK CFI 6c02 .cfa: $rsp 48 +
STACK CFI 6c03 .cfa: $rsp 40 +
STACK CFI 6c05 .cfa: $rsp 32 +
STACK CFI 6c07 .cfa: $rsp 24 +
STACK CFI 6c09 .cfa: $rsp 16 +
STACK CFI 6c0b .cfa: $rsp 8 +
STACK CFI 6c0c .cfa: $rsp 80 +
STACK CFI INIT 6c20 82 .cfa: $rsp 8 + .ra: .cfa -8 + ^
STACK CFI 6c3a .cfa: $rsp 32 +
STACK CFI 6c63 .cfa: $rsp 8 +
STACK CFI 6c68 .cfa: $rsp 32 +
STACK CFI 6c86 .cfa: $rsp 8 +
STACK CFI INIT 6cb0 28 .cfa: $rsp 8 + .ra: .cfa -8 + ^
STACK CFI 6cb1 $rbx: .cfa -16 + ^ .cfa: $rsp 16 +
STACK CFI 6cd7 .cfa: $rsp 8 +
STACK CFI INIT 6ce0 168 .cfa: $rsp 8 + .ra: .cfa -8 + ^
STACK CFI 6ce1 $rbx: .cfa -16 + ^ .cfa: $rsp 16 +
STACK CFI 6ce8 .cfa: $rsp 1616 +
STACK CFI 6d52 .cfa: $rsp 16 +
STACK CFI 6d53 .cfa: $rsp 8 +
STACK CFI 6d58 .cfa: $rsp 1616 +
STACK CFI 6def .cfa: $rsp 16 +
STACK CFI 6df0 .cfa: $rsp 8 +
STACK CFI 6df8 .cfa: $rsp 1616 +
STACK CFI INIT 6e50 a7 .cfa: $rsp 8 + .ra: .cfa -8 + ^
STACK CFI 6e52 $r13: .cfa -16 + ^ .cfa: $rsp 16 +
STACK CFI 6e5c $r12: .cfa -24 + ^ .cfa: $rsp 24 +
STACK CFI 6e60 $rbp: .cfa -32 + ^ .cfa: $rsp 32 +
STACK CFI 6e66 $rbx: .cfa -40 + ^ .cfa: $rsp 40 +
STACK CFI 6e6d .cfa: $rsp 640 +
STACK CFI 6ee6 .cfa: $rsp 40 +
STACK CFI 6eed .cfa: $rsp 32 +
STACK CFI 6eee .cfa: $rsp 24 +
STACK CFI 6ef0 .cfa: $rsp 16 +
STACK CFI 6ef2 .cfa: $rsp 8 +
STACK CFI INIT 6f00 5d .cfa: $rsp 8 + .ra: .cfa -8 + ^
STACK CFI 6f02 $r12: .cfa -16 + ^ .cfa: $rsp 16 +
STACK CFI 6f06 $rbp: .cfa -24 + ^ .cfa: $rsp 24 +
STACK CFI 6f0b $rbx: .cfa -32 + ^ .cfa: $rsp 32 +
STACK CFI 6f47 .cfa: $rsp 24 +
STACK CFI 6f4e .cfa: $rsp 16 +
STACK CFI 6f50 .cfa: $rsp 8 +
STACK CFI 6f58 .cfa: $rsp 32 +
STACK CFI 6f59 .cfa: $rsp 24 +
STACK CFI 6f5a .cfa: $rsp 16 +
STACK CFI 6f5c .cfa: $rsp 8 +
STACK CFI INIT 6f60 31 .cfa: $rsp 8 + .ra: .cfa -8 + ^
STACK CFI 6f61 $rbx: .cfa -16 + ^ .cfa: $rsp 16 +
STACK CFI 6f7f .cfa: $rsp 8 +
STACK CFI 6f80 .cfa: $rsp 16 +
STACK CFI 6f8c .cfa: $rsp 8 +
STACK CFI INIT 6fa0 178 .cfa: $rsp 8 + .ra: .cfa -8 + ^
STACK CFI 6fa2 $r15: .cfa -16 + ^ .cfa: $rsp 16 +
STACK CFI 6faa $r14: .cfa -24 + ^ .cfa: $rsp 24 +
STACK CFI 6faf $r13: .cfa -32 + ^ .cfa: $rsp 32 +
STACK CFI 6fb4 $r12: .cfa -40 + ^ .cfa: $rsp 40 +
STACK CFI 6fb8 $rbp: .cfa -48 + ^ .cfa: $rsp 48 +
STACK CFI 6fb9 $rbx: .cfa -56 + ^ .cfa: $rsp 56 +
STACK CFI 6fbd .cfa: $rsp 144 +
STACK CFI 7060 .cfa: $rsp 56 +
STACK CFI 7061 .cfa: $rsp 48 +
STACK CFI 7062 .cfa: $rsp 40 +
STACK CFI 7064 .cfa: $rsp 32 +
STACK CFI 7066 .cfa: $rsp 24 +
STACK CFI 7068 .cfa: $rsp 16 +
STACK CFI 706a .cfa: $rsp 8 +
STACK CFI 706b .cfa: $rsp 144 +
STACK CFI INIT 75e0 19a .cfa: $rsp 8 + .ra: .cfa -8 + ^
STACK CFI 75e2 $r14: .cfa -16 + ^ .cfa: $rsp 16 +
STACK CFI 75e4 $r13: .cfa -24 + ^ .cfa: $rsp 24 +
STACK CFI 75e6 $r12: .cfa -32 + ^ .cfa: $rsp 32 +
STACK CFI 75e7 $rbp: .cfa -40 + ^ .cfa: $rsp 40 +
STACK CFI 75eb $rbx: .cfa -48 + ^ .cfa: $rsp 48 +
STACK CFI 75f2 .cfa: $rsp 64 +
STACK CFI 763e .cfa: $rsp 48 +
STACK CFI 763f .cfa: $rsp 40 +
STACK CFI 7640 .cfa: $rsp 32 +
STACK CFI 7642 .cfa: $rsp 24 +
STACK CFI 7644 .cfa: $rsp 16 +
STACK CFI 7646 .cfa: $rsp 8 +
STACK CFI 7650 .cfa: $rsp 64 +
STACK CFI INIT 7120 339 .cfa: $rsp 8 + .ra: .cfa -8 + ^
STACK CFI 7122 $r15: .cfa -16 + ^ .cfa: $rsp 16 +
STACK CFI 7127 $r14: .cfa -24 + ^ .cfa: $rsp 24 +
STACK CFI 7129 $r13: .cfa -32 + ^ .cfa: $rsp 32 +
STACK CFI 712f $r12: .cfa -40 + ^ .cfa: $rsp 40 +
STACK CFI 7130 $rbp: .cfa -48 + ^ .cfa: $rsp 48 +
STACK CFI 7131 $rbx: .cfa -56 + ^ .cfa: $rsp 56 +
STACK CFI 7138 .cfa: $rsp 80 +
STACK CFI 7220 .cfa: $rsp 56 +
STACK CFI 7221 .cfa: $rsp 48 +
STACK CFI 7222 .cfa: $rsp 40 +
STACK CFI 7224 .cfa: $rsp 32 +
STACK CFI 7226 .cfa: $rsp 24 +
STACK CFI 7228 .cfa: $rsp 16 +
STACK CFI 722a .cfa: $rsp 8 +
STACK CFI 7230 .cfa: $rsp 80 +
STACK CFI INIT 7460 171 .cfa: $rsp 8 + .ra: .cfa -8 + ^
STACK CFI 7462 $r14: .cfa -16 + ^ .cfa: $rsp 16 +
STACK CFI 7467 $r13: .cfa -24 + ^ .cfa: $rsp 24 +
STACK CFI 746c $r12: .cfa -32 + ^ .cfa: $rsp 32 +
STACK CFI 746d $rbp: .cfa -40 + ^ .cfa: $rsp 40 +
STACK CFI 7474 $rbx: .cfa -48 + ^ .cfa: $rsp 48 +
STACK CFI 747b .cfa: $rsp 256 +
STACK CFI 751f .cfa: $rsp 48 +
STACK CFI 7523 .cfa: $rsp 40 +
STACK CFI 7524 .cfa: $rsp 32 +
STACK CFI 7526 .cfa: $rsp 24 +
STACK CFI 7528 .cfa: $rsp 16 +
STACK CFI 752a .cfa: $rsp 8 +
STACK CFI 752b .cfa: $rsp 256 +
STACK CFI INIT 7780 75 .cfa: $rsp 8 + .ra: .cfa -8 + ^
STACK CFI 7781 $rbp: .cfa -16 + ^ .cfa: $rsp 16 +
STACK CFI 7789 $rbx: .cfa -24 + ^ .cfa: $rsp 24 +
STACK CFI 7794 .cfa: $rsp 32 +
STACK CFI 77d3 .cfa: $rsp 24 +
STACK CFI 77d4 .cfa: $rsp 16 +
STACK CFI 77d5 .cfa: $rsp 8 +
STACK CFI 77d6 .cfa: $rsp 32 +
STACK CFI INIT 7800 2b2 .cfa: $rsp 8 + .ra: .cfa -8 + ^
STACK CFI 7802 $r14: .cfa -16 + ^ .cfa: $rsp 16 +
STACK CFI 7804 $r13: .cfa -24 + ^ .cfa: $rsp 24 +
STACK CFI 7806 $r12: .cfa -32 + ^ .cfa: $rsp 32 +
STACK CFI 7807 $rbp: .cfa -40 + ^ .cfa: $rsp 40 +
STACK CFI 7808 $rbx: .cfa -48 + ^ .cfa: $rsp 48 +
STACK CFI 780f .cfa: $rsp 176 +
STACK CFI 7979 .cfa: $rsp 48 +
STACK CFI 797a .cfa: $rsp 40 +
STACK CFI 797b .cfa: $rsp 32 +
STACK CFI 797d .cfa: $rsp 24 +
STACK CFI 797f .cfa: $rsp 16 +
STACK CFI 7981 .cfa: $rsp 8 +
STACK CFI 7982 .cfa: $rsp 176 +
STACK CFI INIT 7ac0 8c .cfa: $rsp 8 + .ra: .cfa -8 + ^
STACK CFI 7ac1 $rbp: .cfa -16 + ^ .cfa: $rsp 16 +
STACK CFI 7ac5 $rbx: .cfa -24 + ^ .cfa: $rsp 24 +
STACK CFI 7ac9 .cfa: $rsp 32 +
STACK CFI 7b27 .cfa: $rsp 24 +
STACK CFI 7b2b .cfa: $rsp 16 +
STACK CFI 7b2c .cfa: $rsp 8 +
STACK CFI 7b2d .cfa: $rsp 32 +
STACK CFI INIT 7b50 34 .cfa: $rsp 8 + .ra: .cfa -8 + ^
STACK CFI 7b5c $rbx: .cfa -16 + ^ .cfa: $rsp 16 +
STACK CFI 7b83 .cfa: $rsp 8 +
STACK CFI INIT 7b90 163e .cfa: $rsp 8 + .ra: .cfa -8 + ^
STACK CFI 7b92 $r15: .cfa -16 + ^ .cfa: $rsp 16 +
STACK CFI 7b94 $r14: .cfa -24 + ^ .cfa: $rsp 24 +
STACK CFI 7b96 $r13: .cfa -32 + ^ .cfa: $rsp 32 +
STACK CFI 7b98 $r12: .cfa -40 + ^ .cfa: $rsp 40 +
STACK CFI 7b9c $rbp: .cfa -48 + ^ .cfa: $rsp 48 +
STACK CFI 7ba2 $rbx: .cfa -56 + ^ .cfa: $rsp 56 +
STACK CFI 7ba9 .cfa: $rsp 3872 +
STACK CFI 7bfb .cfa: $rsp 56 +
STACK CFI 7bfe .cfa: $rsp 48 +
STACK CFI 7bff .cfa: $rsp 40 +
STACK CFI 7c01 .cfa: $rsp 32 +
STACK CFI 7c03 .cfa: $rsp 24 +
STACK CFI 7c05 .cfa: $rsp 16 +
STACK CFI 7c07 .cfa: $rsp 8 +
STACK CFI 7c08 .cfa: $rsp 3872 +
STACK CFI INIT 91d0 1af .cfa: $rsp 8 + .ra: .cfa -8 + ^
STACK CFI 91d2 $r15: .cfa -16 + ^ .cfa: $rsp 16 +
STACK CFI 91d4 $r14: .cfa -24 + ^ .cfa: $rsp 24 +
STACK CFI 91e0 $r13: .cfa -32 + ^ .cfa: $rsp 32 +
STACK CFI 91ea $r12: .cfa -40 + ^ .cfa: $rsp 40 +
STACK CFI 91ee $rbp: .cfa -48 + ^ .cfa: $rsp 48 +
STACK CFI 91f3 $rbx: .cfa -56 + ^ .cfa: $rsp 56 +
STACK CFI 91ff .cfa: $rsp 384 +
STACK CFI 920f .cfa: $rsp 56 +
STACK CFI 9212 .cfa: $rsp 48 +
STACK CFI 9213 .cfa: $rsp 40 +
STACK CFI 9215 .cfa: $rsp 32 +
STACK CFI 9217 .cfa: $rsp 24 +
STACK CFI 9219 .cfa: $rsp 16 +
STACK CFI 921b .cfa: $rsp 8 +
STACK CFI 9220 .cfa: $rsp 384 +
STACK CFI INIT 5610 20 .cfa: $rsp 8 + .ra: .cfa -8 + ^
STACK CFI 5618 .cfa: $rsp 16 +
STACK CFI INIT 9380 69 .cfa: $rsp 8 + .ra: .cfa -8 + ^
STACK CFI 9382 $r13: .cfa -16 + ^ .cfa: $rsp 16 +
STACK CFI 938a $r12: .cfa -24 + ^ .cfa: $rsp 24 +
STACK CFI 938e $rbp: .cfa -32 + ^ .cfa: $rsp 32 +
STACK CFI 938f $rbx: .cfa -40 + ^ .cfa: $rsp 40 +
STACK CFI 9393 .cfa: $rsp 48 +
STACK CFI 93e2 .cfa: $rsp 40 +
STACK CFI 93e3 .cfa: $rsp 32 +
STACK CFI 93e4 .cfa: $rsp 24 +
STACK CFI 93e6 .cfa: $rsp 16 +
STACK CFI 93e8 .cfa: $rsp 8 +
STACK CFI INIT 93f0 12 .cfa: $rsp 8 + .ra: .cfa -8 + ^
STACK CFI 93f1 $rbx: .cfa -16 + ^ .cfa: $rsp 16 +
STACK CFI 93fd .cfa: $rsp 8 +
STACK CFI INIT 9410 c8 .cfa: $rsp 8 + .ra: .cfa -8 + ^
STACK CFI 9412 $r14: .cfa -16 + ^ .cfa: $rsp 16 +
STACK CFI 9417 $r13: .cfa -24 + ^ .cfa: $rsp 24 +
STACK CFI 941c $r12: .cfa -32 + ^ .cfa: $rsp 32 +
STACK CFI 9420 $rbp: .cfa -40 + ^ .cfa: $rsp 40 +
STACK CFI 9424 $rbx: .cfa -48 + ^ .cfa: $rsp 48 +
STACK CFI 9462 .cfa: $rsp 40 +
STACK CFI 9463 .cfa: $rsp 32 +
STACK CFI 9465 .cfa: $rsp 24 +
STACK CFI 9467 .cfa: $rsp 16 +
STACK CFI 9469 .cfa: $rsp 8 +
STACK CFI 9470 .cfa: $rsp 48 +
STACK CFI 94a0 .cfa: $rsp 40 +
STACK CFI 94a1 .cfa: $rsp 32 +
STACK CFI 94a3 .cfa: $rsp 24 +
STACK CFI 94a5 .cfa: $rsp 16 +
STACK CFI 94a7 .cfa: $rsp 8 +
STACK CFI 94b0 .cfa: $rsp 48 +
STACK CFI 94cc .cfa: $rsp 40 +
STACK CFI 94cd .cfa: $rsp 32 +
STACK CFI 94cf .cfa: $rsp 24 +
STACK CFI 94d1 .cfa: $rsp 16 +
STACK CFI 94d3 .cfa: $rsp 8 +
STACK CFI INIT 94e0 114 .cfa: $rsp 8 + .ra: .cfa -8 + ^
STACK CFI 94e2 $r13: .cfa -16 + ^ .cfa: $rsp 16 +
STACK CFI 94ee $r12: .cfa -24 + ^ .cfa: $rsp 24 +
STACK CFI 94ef $rbp: .cfa -32 + ^ .cfa: $rsp 32 +
STACK CFI 94f0 $rbx: .cfa -40 + ^ .cfa: $rsp 40 +
STACK CFI 94f7 .cfa: $rsp 320 +
STACK CFI 958f .cfa: $rsp 40 +
STACK CFI 9593 .cfa: $rsp 32 +
STACK CFI 9594 .cfa: $rsp 24 +
STACK CFI 9596 .cfa: $rsp 16 +
STACK CFI 9598 .cfa: $rsp 8 +
STACK CFI 95a0 .cfa: $rsp 320 +
STACK CFI 95b7 .cfa: $rsp 40 +
STACK CFI 95b8 .cfa: $rsp 32 +
STACK CFI 95b9 .cfa: $rsp 24 +
STACK CFI 95bb .cfa: $rsp 16 +
STACK CFI 95bd .cfa: $rsp 8 +
STACK CFI 95c0 .cfa: $rsp 320 +
STACK CFI INIT 9600 32 .cfa: $rsp 8 + .ra: .cfa -8 + ^
STACK CFI 9601 $rbx: .cfa -16 + ^ .cfa: $rsp 16 +
STACK CFI 9610 .cfa: $rsp 8 +
STACK CFI 9618 .cfa: $rsp 16 +
STACK CFI 962c .cfa: $rsp 8 +
STACK CFI INIT 9640 4b .cfa: $rsp 8 + .ra: .cfa -8 + ^
STACK CFI INIT 9690 73 .cfa: $rsp 8 + .ra: .cfa -8 + ^
STACK CFI 9692 $r14: .cfa -16 + ^ .cfa: $rsp 16 +
STACK CFI 9697 $r13: .cfa -24 + ^ .cfa: $rsp 24 +
STACK CFI 969c $r12: .cfa -32 + ^ .cfa: $rsp 32 +
STACK CFI 96a0 $rbp: .cfa -40 + ^ .cfa: $rsp 40 +
STACK CFI 96a4 $rbx: .cfa -48 + ^ .cfa: $rsp 48 +
STACK CFI 96ec .cfa: $rsp 40 +
STACK CFI 96ed .cfa: $rsp 32 +
STACK CFI 96ef .cfa: $rsp 24 +
STACK CFI 96f1 .cfa: $rsp 16 +
STACK CFI 96f3 .cfa: $rsp 8 +
STACK CFI 96f8 .cfa: $rsp 48 +
STACK CFI 96f9 .cfa: $rsp 40 +
STACK CFI 96fa .cfa: $rsp 32 +
STACK CFI 96fc .cfa: $rsp 24 +
STACK CFI 96fe .cfa: $rsp 16 +
STACK CFI 9702 .cfa: $rsp 8 +
STACK CFI INIT 9710 1df .cfa: $rsp 8 + .ra: .cfa -8 + ^
STACK CFI 9712 $r14: .cfa -16 + ^ .cfa: $rsp 16 +
STACK CFI 9714 $r13: .cfa -24 + ^ .cfa: $rsp 24 +
STACK CFI 9716 $r12: .cfa -32 + ^ .cfa: $rsp 32 +
STACK CFI 9717 $rbp: .cfa -40 + ^ .cfa: $rsp 40 +
STACK CFI 971b $rbx: .cfa -48 + ^ .cfa: $rsp 48 +
STACK CFI 9728 .cfa: $rsp 848 +
STACK CFI 973c .cfa: $rsp 48 +
STACK CFI 973f .cfa: $rsp 40 +
STACK CFI 9740 .cfa: $rsp 32 +
STACK CFI 9742 .cfa: $rsp 24 +
STACK CFI 9744 .cfa: $rsp 16 +
STACK CFI 9746 .cfa: $rsp 8 +
STACK CFI 9750 .cfa: $rsp 848 +
STACK CFI INIT 98f0 325 .cfa: $rsp 8 + .ra: .cfa -8 + ^
STACK CFI 98f2 $r15: .cfa -16 + ^ .cfa: $rsp 16 +
STACK CFI 98f4 $r14: .cfa -24 + ^ .cfa: $rsp 24 +
STACK CFI 98f9 $r13: .cfa -32 + ^ .cfa: $rsp 32 +
STACK CFI 98fe $r12: .cfa -40 + ^ .cfa: $rsp 40 +
STACK CFI 98ff $rbp: .cfa -48 + ^ .cfa: $rsp 48 +
STACK CFI 9903 $rbx: .cfa -56 + ^ .cfa: $rsp 56 +
STACK CFI 990d .cfa: $rsp 368 +
STACK CFI 9960 .cfa: $rsp 56 +
STACK CFI 9964 .cfa: $rsp 48 +
STACK CFI 9965 .cfa: $rsp 40 +
STACK CFI 9967 .cfa: $rsp 32 +
STACK CFI 9969 .cfa: $rsp 24 +
STACK CFI 996b .cfa: $rsp 16 +
STACK CFI 996d .cfa: $rsp 8 +
STACK CFI 9970 .cfa: $rsp 368 +
STACK CFI INIT a9a0 2eb .cfa: $rsp 8 + .ra: .cfa -8 + ^
STACK CFI a9a2 $r15: .cfa -16 + ^ .cfa: $rsp 16 +
STACK CFI a9a4 $r14: .cfa -24 + ^ .cfa: $rsp 24 +
STACK CFI a9a9 $r13: .cfa -32 + ^ .cfa: $rsp 32 +
STACK CFI a9ab $r12: .cfa -40 + ^ .cfa: $rsp 40 +
STACK CFI a9ac $rbp: .cfa -48 + ^ .cfa: $rsp 48 +
STACK CFI a9b0 $rbx: .cfa -56 + ^ .cfa: $rsp 56 +
STACK CFI a9b7 .cfa: $rsp 96 +
STACK CFI aa03 .cfa: $rsp 56 +
STACK CFI aa04 .cfa: $rsp 48 +
STACK CFI aa05 .cfa: $rsp 40 +
STACK CFI aa07 .cfa: $rsp 32 +
STACK CFI aa09 .cfa: $rsp 24 +
STACK CFI aa0b .cfa: $rsp 16 +
STACK CFI aa0d .cfa: $rsp 8 +
STACK CFI aa10 .cfa: $rsp 96 +
STACK CFI INIT ac90 42c .cfa: $rsp 8 + .ra: .cfa -8 + ^
STACK CFI ac92 $r15: .cfa -16 + ^ .cfa: $rsp 16 +
STACK CFI ac94 $r14: .cfa -24 + ^ .cfa: $rsp 24 +
STACK CFI ac99 $r13: .cfa -32 + ^ .cfa: $rsp 32 +
STACK CFI ac9b $r12: .cfa -40 + ^ .cfa: $rsp 40 +
STACK CFI ac9c $rbp: .cfa -48 + ^ .cfa: $rsp 48 +
STACK CFI ac9d $rbx: .cfa -56 + ^ .cfa: $rsp 56 +
STACK CFI aca1 .cfa: $rsp 96 +
STACK CFI ad48 .cfa: $rsp 56 +
STACK CFI ad49 .cfa: $rsp 48 +
STACK CFI ad4a .cfa: $rsp 40 +
STACK CFI ad4c .cfa: $rsp 32 +
STACK CFI ad4e .cfa: $rsp 24 +
STACK CFI ad50 .cfa: $rsp 16 +
STACK CFI ad52 .cfa: $rsp 8 +
STACK CFI ad58 .cfa: $rsp 96 +
STACK CFI add0 .cfa: $rsp 56 +
STACK CFI add1 .cfa: $rsp 48 +
STACK CFI add2 .cfa: $rsp 40 +
STACK CFI add4 .cfa: $rsp 32 +
STACK CFI add6 .cfa: $rsp 24 +
STACK CFI add8 .cfa: $rsp 16 +
STACK CFI adda .cfa: $rsp 8 +
STACK CFI ade0 .cfa: $rsp 96 +
STACK CFI af48 .cfa: $rsp 56 +
STACK CFI af49 .cfa: $rsp 48 +
STACK CFI af4a .cfa: $rsp 40 +
STACK CFI af4c .cfa: $rsp 32 +
STACK CFI af4e .cfa: $rsp 24 +
STACK CFI af50 .cfa: $rsp 16 +
STACK CFI af52 .cfa: $rsp 8 +
STACK CFI af58 .cfa: $rsp 96 +
STACK CFI INIT 9c20 4ca .cfa: $rsp 8 + .ra: .cfa -8 + ^
STACK CFI 9c22 $r15: .cfa -16 + ^ .cfa: $rsp 16 +
STACK CFI 9c2b $r14: .cfa -24 + ^ .cfa: $rsp 24 +
STACK CFI 9c33 $r13: .cfa -32 + ^ .cfa: $rsp 32 +
STACK CFI 9c35 $r12: .cfa -40 + ^ .cfa: $rsp 40 +
STACK CFI 9c36 $rbp: .cfa -48 + ^ .cfa: $rsp 48 +
STACK CFI 9c37 $rbx: .cfa -56 + ^ .cfa: $rsp 56 +
STACK CFI 9c42 .cfa: $rsp 80 +
STACK CFI 9e50 .cfa: $rsp 56 +
STACK CFI 9e51 .cfa: $rsp 48 +
STACK CFI 9e52 .cfa: $rsp 40 +
STACK CFI 9e54 .cfa: $rsp 32 +
STACK CFI 9e56 .cfa: $rsp 24 +
STACK CFI 9e58 .cfa: $rsp 16 +
STACK CFI 9e5a .cfa: $rsp 8 +
STACK CFI 9e60 .cfa: $rsp 80 +
STACK CFI INIT b0c0 438 .cfa: $rsp 8 + .ra: .cfa -8 + ^
STACK CFI b0c2 $r15: .cfa -16 + ^ .cfa: $rsp 16 +
STACK CFI b0c7 $r14: .cfa -24 + ^ .cfa: $rsp 24 +
STACK CFI b0c9 $r13: .cfa -32 + ^ .cfa: $rsp 32 +
STACK CFI b0cb $r12: .cfa -40 + ^ .cfa: $rsp 40 +
STACK CFI b0cc $rbp: .cfa -48 + ^ .cfa: $rsp 48 +
STACK CFI b0cd $rbx: .cfa -56 + ^ .cfa: $rsp 56 +
STACK CFI b0d1 .cfa: $rsp 96 +
STACK CFI b190 .cfa: $rsp 56 +
STACK CFI b191 .cfa: $rsp 48 +
STACK CFI b192 .cfa: $rsp 40 +
STACK CFI b194 .cfa: $rsp 32 +
STACK CFI b196 .cfa: $rsp 24 +
STACK CFI b198 .cfa: $rsp 16 +
STACK CFI b19a .cfa: $rsp 8 +
STACK CFI b1a0 .cfa: $rsp 96 +
STACK CFI b210 .cfa: $rsp 56 +
STACK CFI b211 .cfa: $rsp 48 +
STACK CFI b212 .cfa: $rsp 40 +
STACK CFI b214 .cfa: $rsp 32 +
STACK CFI b216 .cfa: $rsp 24 +
STACK CFI b218 .cfa: $rsp 16 +
STACK CFI b21a .cfa: $rsp 8 +
STACK CFI b220 .cfa: $rsp 96 +
STACK CFI b390 .cfa: $rsp 56 +
STACK CFI b391 .cfa: $rsp 48 +
STACK CFI b392 .cfa: $rsp 40 +
STACK CFI b394 .cfa: $rsp 32 +
STACK CFI b396 .cfa: $rsp 24 +
STACK CFI b398 .cfa: $rsp 16 +
STACK CFI b39a .cfa: $rsp 8 +
STACK CFI b3a0 .cfa: $rsp 96 +
STACK CFI INIT a0f0 8af .cfa: $rsp 8 + .ra: .cfa -8 + ^
STACK CFI a0f2 $r15: .cfa -16 + ^ .cfa: $rsp 16 +
STACK CFI a0fe $r14: .cfa -24 + ^ .cfa: $rsp 24 +
STACK CFI a100 $r13: .cfa -32 + ^ .cfa: $rsp 32 +
STACK CFI a102 $r12: .cfa -40 + ^ .cfa: $rsp 40 +
STACK CFI a103 $rbp: .cfa -48 + ^ .cfa: $rsp 48 +
STACK CFI a104 $rbx: .cfa -56 + ^ .cfa: $rsp 56 +
STACK CFI a10b .cfa: $rsp 464 +
STACK CFI a289 .cfa: $rsp 56 +
STACK CFI a28a .cfa: $rsp 48 +
STACK CFI a28b .cfa: $rsp 40 +
STACK CFI a28d .cfa: $rsp 32 +
STACK CFI a28f .cfa: $rsp 24 +
STACK CFI a291 .cfa: $rsp 16 +
STACK CFI a293 .cfa: $rsp 8 +
STACK CFI a294 .cfa: $rsp 464 +
STACK CFI INIT b500 3 .cfa: $rsp 8 + .ra: .cfa -8 + ^
STACK CFI INIT b510 b7 .cfa: $rsp 8 + .ra: .cfa -8 + ^
STACK CFI b512 $r15: .cfa -16 + ^ .cfa: $rsp 16 +
STACK CFI b514 $r14: .cfa -24 + ^ .cfa: $rsp 24 +
STACK CFI b516 $r13: .cfa -32 + ^ .cfa: $rsp 32 +
STACK CFI b518 $r12: .cfa -40 + ^ .cfa: $rsp 40 +
STACK CFI b519 $rbp: .cfa -48 + ^ .cfa: $rsp 48 +
STACK CFI b51a $rbx: .cfa -56 + ^ .cfa: $rsp 56 +
STACK CFI b521 .cfa: $rsp 96 +
STACK CFI b5bc .cfa: $rsp 56 +
STACK CFI b5bd .cfa: $rsp 48 +
STACK CFI b5be .cfa: $rsp 40 +
STACK CFI b5c0 .cfa: $rsp 32 +
STACK CFI b5c2 .cfa: $rsp 24 +
STACK CFI b5c4 .cfa: $rsp 16 +
STACK CFI b5c6 .cfa: $rsp 8 +
STACK CFI INIT c200 13 .cfa: $rsp 8 + .ra: .cfa -8 + ^
STACK CFI INIT c220 20 .cfa: $rsp 8 + .ra: .cfa -8 + ^
STACK CFI c228 $rbx: .cfa -16 + ^ .cfa: $rsp 16 +
STACK CFI c23b .cfa: $rsp 8 +
STACK CFI INIT b5d0 c8 .cfa: $rsp 8 + .ra: .cfa -8 + ^
STACK CFI b5d2 $r15: .cfa -16 + ^ .cfa: $rsp 16 +
STACK CFI b5d4 $r14: .cfa -24 + ^ .cfa: $rsp 24 +
STACK CFI b5d6 $r13: .cfa -32 + ^ .cfa: $rsp 32 +
STACK CFI b5d8 $r12: .cfa -40 + ^ .cfa: $rsp 40 +
STACK CFI b5dc $rbp: .cfa -48 + ^ .cfa: $rsp 48 +
STACK CFI b5e0 $rbx: .cfa -56 + ^ .cfa: $rsp 56 +
STACK CFI b5e4 .cfa: $rsp 80 +
STACK CFI b613 .cfa: $rsp 56 +
STACK CFI b616 .cfa: $rsp 48 +
STACK CFI b617 .cfa: $rsp 40 +
STACK CFI b619 .cfa: $rsp 32 +
STACK CFI b61b .cfa: $rsp 24 +
STACK CFI b61d .cfa: $rsp 16 +
STACK CFI b61f .cfa: $rsp 8 +
STACK CFI b620 .cfa: $rsp 80 +
STACK CFI INIT b6a0 4e8 .cfa: $rsp 8 + .ra: .cfa -8 + ^
STACK CFI b6a2 $r15: .cfa -16 + ^ .cfa: $rsp 16 +
STACK CFI b6a4 $r14: .cfa -24 + ^ .cfa: $rsp 24 +
STACK CFI b6a6 $r13: .cfa -32 + ^ .cfa: $rsp 32 +
STACK CFI b6a8 $r12: .cfa -40 + ^ .cfa: $rsp 40 +
STACK CFI b6a9 $rbp: .cfa -48 + ^ .cfa: $rsp 48 +
STACK CFI b6ad $rbx: .cfa -56 + ^ .cfa: $rsp 56 +
STACK CFI b6b7 .cfa: $rsp 384 +
STACK CFI b8d0 .cfa: $rsp 56 +
STACK CFI b8d1 .cfa: $rsp 48 +
STACK CFI b8d2 .cfa: $rsp 40 +
STACK CFI b8d4 .cfa: $rsp 32 +
STACK CFI b8d6 .cfa: $rsp 24 +
STACK CFI b8d8 .cfa: $rsp 16 +
STACK CFI b8da .cfa: $rsp 8 +
STACK CFI b8db .cfa: $rsp 384 +
STACK CFI INIT bb90 ba .cfa: $rsp 8 + .ra: .cfa -8 + ^
STACK CFI bb92 $r15: .cfa -16 + ^ .cfa: $rsp 16 +
STACK CFI bb94 $r14: .cfa -24 + ^ .cfa: $rsp 24 +
STACK CFI bb99 $r13: .cfa -32 + ^ .cfa: $rsp 32 +
STACK CFI bb9b $r12: .cfa -40 + ^ .cfa: $rsp 40 +
STACK CFI bb9c $rbp: .cfa -48 + ^ .cfa: $rsp 48 +
STACK CFI bb9d $rbx: .cfa -56 + ^ .cfa: $rsp 56 +
STACK CFI bba1 .cfa: $rsp 64 +
STACK CFI bc3f .cfa: $rsp 56 +
STACK CFI bc40 .cfa: $rsp 48 +
STACK CFI bc41 .cfa: $rsp 40 +
STACK CFI bc43 .cfa: $rsp 32 +
STACK CFI bc45 .cfa: $rsp 24 +
STACK CFI bc47 .cfa: $rsp 16 +
STACK CFI bc49 .cfa: $rsp 8 +
STACK CFI INIT bc50 20 .cfa: $rsp 8 + .ra: .cfa -8 + ^
STACK CFI bc51 $rbx: .cfa -16 + ^ .cfa: $rsp 16 +
STACK CFI bc6f .cfa: $rsp 8 +
STACK CFI INIT c240 2e7 .cfa: $rsp 8 + .ra: .cfa -8 + ^
STACK CFI c242 $r15: .cfa -16 + ^ .cfa: $rsp 16 +
STACK CFI c244 $r14: .cfa -24 + ^ .cfa: $rsp 24 +
STACK CFI c249 $r13: .cfa -32 + ^ .cfa: $rsp 32 +
STACK CFI c24b $r12: .cfa -40 + ^ .cfa: $rsp 40 +
STACK CFI c24c $rbp: .cfa -48 + ^ .cfa: $rsp 48 +
STACK CFI c250 $rbx: .cfa -56 + ^ .cfa: $rsp 56 +
STACK CFI c257 .cfa: $rsp 96 +
STACK CFI c28c .cfa: $rsp 56 +
STACK CFI c28d .cfa: $rsp 48 +
STACK CFI c28e .cfa: $rsp 40 +
STACK CFI c290 .cfa: $rsp 32 +
STACK CFI c292 .cfa: $rsp 24 +
STACK CFI c294 .cfa: $rsp 16 +
STACK CFI c296 .cfa: $rsp 8 +
STACK CFI c2a0 .cfa: $rsp 96 +
STACK CFI INIT bc70 359 .cfa: $rsp 8 + .ra: .cfa -8 + ^
STACK CFI bc72 $r15: .cfa -16 + ^ .cfa: $rsp 16 +
STACK CFI bc7b $r14: .cfa -24 + ^ .cfa: $rsp 24 +
STACK CFI bc7d $r13: .cfa -32 + ^ .cfa: $rsp 32 +
STACK CFI bc7f $r12: .cfa -40 + ^ .cfa: $rsp 40 +
STACK CFI bc80 $rbp: .cfa -48 + ^ .cfa: $rsp 48 +
STACK CFI bc81 $rbx: .cfa -56 + ^ .cfa: $rsp 56 +
STACK CFI bc8b .cfa: $rsp 368 +
STACK CFI bdb4 .cfa: $rsp 56 +
STACK CFI bdb7 .cfa: $rsp 48 +
STACK CFI bdb8 .cfa: $rsp 40 +
STACK CFI bdba .cfa: $rsp 32 +
STACK CFI bdbc .cfa: $rsp 24 +
STACK CFI bdbe .cfa: $rsp 16 +
STACK CFI bdc0 .cfa: $rsp 8 +
STACK CFI bdc8 .cfa: $rsp 368 +
STACK CFI INIT c530 42c .cfa: $rsp 8 + .ra: .cfa -8 + ^
STACK CFI c532 $r15: .cfa -16 + ^ .cfa: $rsp 16 +
STACK CFI c534 $r14: .cfa -24 + ^ .cfa: $rsp 24 +
STACK CFI c539 $r13: .cfa -32 + ^ .cfa: $rsp 32 +
STACK CFI c53b $r12: .cfa -40 + ^ .cfa: $rsp 40 +
STACK CFI c53c $rbp: .cfa -48 + ^ .cfa: $rsp 48 +
STACK CFI c53d $rbx: .cfa -56 + ^ .cfa: $rsp 56 +
STACK CFI c541 .cfa: $rsp 96 +
STACK CFI c5e7 .cfa: $rsp 56 +
STACK CFI c5e8 .cfa: $rsp 48 +
STACK CFI c5e9 .cfa: $rsp 40 +
STACK CFI c5eb .cfa: $rsp 32 +
STACK CFI c5ed .cfa: $rsp 24 +
STACK CFI c5ef .cfa: $rsp 16 +
STACK CFI c5f1 .cfa: $rsp 8 +
STACK CFI c5f8 .cfa: $rsp 96 +
STACK CFI c66f .cfa: $rsp 56 +
STACK CFI c670 .cfa: $rsp 48 +
STACK CFI c671 .cfa: $rsp 40 +
STACK CFI c673 .cfa: $rsp 32 +
STACK CFI c675 .cfa: $rsp 24 +
STACK CFI c677 .cfa: $rsp 16 +
STACK CFI c679 .cfa: $rsp 8 +
STACK CFI c680 .cfa: $rsp 96 +
STACK CFI c7de .cfa: $rsp 56 +
STACK CFI c7df .cfa: $rsp 48 +
STACK CFI c7e0 .cfa: $rsp 40 +
STACK CFI c7e2 .cfa: $rsp 32 +
STACK CFI c7e4 .cfa: $rsp 24 +
STACK CFI c7e6 .cfa: $rsp 16 +
STACK CFI c7e8 .cfa: $rsp 8 +
STACK CFI c7f0 .cfa: $rsp 96 +
STACK CFI INIT bfd0 22c .cfa: $rsp 8 + .ra: .cfa -8 + ^
STACK CFI bfd2 $r15: .cfa -16 + ^ .cfa: $rsp 16 +
STACK CFI bfd4 $r14: .cfa -24 + ^ .cfa: $rsp 24 +
STACK CFI bfd9 $r13: .cfa -32 + ^ .cfa: $rsp 32 +
STACK CFI bfdb $r12: .cfa -40 + ^ .cfa: $rsp 40 +
STACK CFI bfdc $rbp: .cfa -48 + ^ .cfa: $rsp 48 +
STACK CFI bfdd $rbx: .cfa -56 + ^ .cfa: $rsp 56 +
STACK CFI bfe4 .cfa: $rsp 336 +
STACK CFI c18a .cfa: $rsp 56 +
STACK CFI c18b .cfa: $rsp 48 +
STACK CFI c18c .cfa: $rsp 40 +
STACK CFI c18e .cfa: $rsp 32 +
STACK CFI c190 .cfa: $rsp 24 +
STACK CFI c192 .cfa: $rsp 16 +
STACK CFI c194 .cfa: $rsp 8 +
STACK CFI c198 .cfa: $rsp 336 +
STACK CFI INIT 5630 29 .cfa: $rsp 8 + .ra: .cfa -8 + ^
STACK CFI 5636 $rbx: .cfa -16 + ^ .cfa: $rsp 16 +
STACK CFI 5658 .cfa: $rsp 8 +
STACK CFI INIT c960 4d .cfa: $rsp 8 + .ra: .cfa -8 + ^
STACK CFI c961 $rbp: .cfa -16 + ^ .cfa: $rsp 16 +
STACK CFI c966 $rbx: .cfa -24 + ^ .cfa: $rsp 24 +
STACK CFI c96d .cfa: $rsp 32 +
STACK CFI c980 .cfa: $rsp 24 +
STACK CFI c984 .cfa: $rsp 16 +
STACK CFI c985 .cfa: $rsp 8 +
STACK CFI c990 .cfa: $rsp 32 +
STACK CFI INIT 565a 4a .cfa: $rsp 8 + .ra: .cfa -8 + ^
STACK CFI 565c $r13: .cfa -16 + ^ .cfa: $rsp 16 +
STACK CFI 5664 $r12: .cfa -24 + ^ .cfa: $rsp 24 +
STACK CFI 566b $rbp: .cfa -32 + ^ .cfa: $rsp 32 +
STACK CFI 566c $rbx: .cfa -40 + ^ .cfa: $rsp 40 +
STACK CFI 566d .cfa: $rsp 48 +
STACK CFI 569d .cfa: $rsp 40 +
STACK CFI 569e .cfa: $rsp 32 +
STACK CFI 569f .cfa: $rsp 24 +
STACK CFI 56a1 .cfa: $rsp 16 +
STACK CFI 56a3 .cfa: $rsp 8 +
STACK CFI INIT 56a4 20 .cfa: $rsp 8 + .ra: .cfa -8 + ^
STACK CFI 56ac .cfa: $rsp 16 +
STACK CFI INIT 56c4 20 .cfa: $rsp 8 + .ra: .cfa -8 + ^
STACK CFI 56cc .cfa: $rsp 16 +
STACK CFI INIT c9b0 1e .cfa: $rsp 8 + .ra: .cfa -8 + ^
STACK CFI c9c9 .cfa: $rsp 16 +
STACK CFI INIT 56e4 20 .cfa: $rsp 8 + .ra: .cfa -8 + ^
STACK CFI 56ec .cfa: $rsp 16 +
STACK CFI INIT 5704 20 .cfa: $rsp 8 + .ra: .cfa -8 + ^
STACK CFI 570c .cfa: $rsp 16 +
STACK CFI INIT 102d0 13f .cfa: $rsp 8 + .ra: .cfa -8 + ^
STACK CFI 102d2 $r15: .cfa -16 + ^ .cfa: $rsp 16 +
STACK CFI 102d4 $r14: .cfa -24 + ^ .cfa: $rsp 24 +
STACK CFI 102d6 $r13: .cfa -32 + ^ .cfa: $rsp 32 +
STACK CFI 102d8 $r12: .cfa -40 + ^ .cfa: $rsp 40 +
STACK CFI 102d9 $rbp: .cfa -48 + ^ .cfa: $rsp 48 +
STACK CFI 102dd $rbx: .cfa -56 + ^ .cfa: $rsp 56 +
STACK CFI 102e1 .cfa: $rsp 64 +
STACK CFI 1031f .cfa: $rsp 56 +
STACK CFI 10320 .cfa: $rsp 48 +
STACK CFI 10321 .cfa: $rsp 40 +
STACK CFI 10323 .cfa: $rsp 32 +
STACK CFI 10325 .cfa: $rsp 24 +
STACK CFI 10327 .cfa: $rsp 16 +
STACK CFI 10329 .cfa: $rsp 8 +
STACK CFI 10330 .cfa: $rsp 64 +
STACK CFI 10381 .cfa: $rsp 56 +
STACK CFI 10384 .cfa: $rsp 48 +
STACK CFI 10385 .cfa: $rsp 40 +
STACK CFI 10387 .cfa: $rsp 32 +
STACK CFI 10389 .cfa: $rsp 24 +
STACK CFI 1038b .cfa: $rsp 16 +
STACK CFI 1038d .cfa: $rsp 8 +
STACK CFI 10390 .cfa: $rsp 64 +
STACK CFI 103dd .cfa: $rsp 56 +
STACK CFI 103e3 .cfa: $rsp 48 +
STACK CFI 103e4 .cfa: $rsp 40 +
STACK CFI 103e6 .cfa: $rsp 32 +
STACK CFI 103e8 .cfa: $rsp 24 +
STACK CFI 103ea .cfa: $rsp 16 +
STACK CFI 103ec .cfa: $rsp 8 +
STACK CFI 103f0 .cfa: $rsp 64 +
STACK CFI 10404 .cfa: $rsp 56 +
STACK CFI 10405 .cfa: $rsp 48 +
STACK CFI 10406 .cfa: $rsp 40 +
STACK CFI 10408 .cfa: $rsp 32 +
STACK CFI 1040a .cfa: $rsp 24 +
STACK CFI 1040c .cfa: $rsp 16 +
STACK CFI 1040e .cfa: $rsp 8 +
STACK CFI INIT 5724 1b7 .cfa: $rsp 8 + .ra: .cfa -8 + ^
STACK CFI 5726 $r15: .cfa -16 + ^ .cfa: $rsp 16 +
STACK CFI 572f $r14: .cfa -24 + ^ .cfa: $rsp 24 +
STACK CFI 5737 $r13: .cfa -32 + ^ .cfa: $rsp 32 +
STACK CFI 5739 $r12: .cfa -40 + ^ .cfa: $rsp 40 +
STACK CFI 573a $rbp: .cfa -48 + ^ .cfa: $rsp 48 +
STACK CFI 573b $rbx: .cfa -56 + ^ .cfa: $rsp 56 +
STACK CFI 573f .cfa: $rsp 112 +
STACK CFI 58ce .cfa: $rsp 56 +
STACK CFI 58d1 .cfa: $rsp 48 +
STACK CFI 58d2 .cfa: $rsp 40 +
STACK CFI 58d4 .cfa: $rsp 32 +
STACK CFI 58d6 .cfa: $rsp 24 +
STACK CFI 58d8 .cfa: $rsp 16 +
STACK CFI 58da .cfa: $rsp 8 +
STACK CFI INIT 58dc 3d .cfa: $rsp 8 + .ra: .cfa -8 + ^
STACK CFI 58de $r12: .cfa -16 + ^ .cfa: $rsp 16 +
STACK CFI 58e2 $rbp: .cfa -24 + ^ .cfa: $rsp 24 +
STACK CFI 58e3 $rbx: .cfa -32 + ^ .cfa: $rsp 32 +
STACK CFI 58ed .cfa: $rsp 288 +
STACK CFI 5914 .cfa: $rsp 32 +
STACK CFI 5915 .cfa: $rsp 24 +
STACK CFI 5916 .cfa: $rsp 16 +
STACK CFI 5918 .cfa: $rsp 8 +
STACK CFI INIT 10410 249 .cfa: $rsp 8 + .ra: .cfa -8 + ^
STACK CFI 10412 $r15: .cfa -16 + ^ .cfa: $rsp 16 +
STACK CFI 10414 $r14: .cfa -24 + ^ .cfa: $rsp 24 +
STACK CFI 1041a $r13: .cfa -32 + ^ .cfa: $rsp 32 +
STACK CFI 1041c $r12: .cfa -40 + ^ .cfa: $rsp 40 +
STACK CFI 1041d $rbp: .cfa -48 + ^ .cfa: $rsp 48 +
STACK CFI 10421 $rbx: .cfa -56 + ^ .cfa: $rsp 56 +
STACK CFI 10428 .cfa: $rsp 64 +
STACK CFI 104af .cfa: $rsp 56 +
STACK CFI 104b2 .cfa: $rsp 48 +
STACK CFI 104b3 .cfa: $rsp 40 +
STACK CFI 104b5 .cfa: $rsp 32 +
STACK CFI 104b7 .cfa: $rsp 24 +
STACK CFI 104b9 .cfa: $rsp 16 +
STACK CFI 104bb .cfa: $rsp 8 +
STACK CFI 104c0 .cfa: $rsp 64 +
STACK CFI 10586 .cfa: $rsp 56 +
STACK CFI 10587 .cfa: $rsp 48 +
STACK CFI 10588 .cfa: $rsp 40 +
STACK CFI 1058a .cfa: $rsp 32 +
STACK CFI 1058c .cfa: $rsp 24 +
STACK CFI 1058e .cfa: $rsp 16 +
STACK CFI 10595 .cfa: $rsp 8 +
STACK CFI 105a0 .cfa: $rsp 64 +
STACK CFI INIT 10660 22 .cfa: $rsp 8 + .ra: .cfa -8 + ^
STACK CFI INIT 10690 22 .cfa: $rsp 8 + .ra: .cfa -8 + ^
STACK CFI INIT 106c0 22 .cfa: $rsp 8 + .ra: .cfa -8 + ^
STACK CFI INIT 106f0 22 .cfa: $rsp 8 + .ra: .cfa -8 + ^
STACK CFI INIT 10720 22 .cfa: $rsp 8 + .ra: .cfa -8 + ^
STACK CFI INIT 10750 307 .cfa: $rsp 8 + .ra: .cfa -8 + ^
STACK CFI 10752 $r15: .cfa -16 + ^ .cfa: $rsp 16 +
STACK CFI 10754 $r14: .cfa -24 + ^ .cfa: $rsp 24 +
STACK CFI 10759 $r13: .cfa -32 + ^ .cfa: $rsp 32 +
STACK CFI 1075b $r12: .cfa -40 + ^ .cfa: $rsp 40 +
STACK CFI 1075c $rbp: .cfa -48 + ^ .cfa: $rsp 48 +
STACK CFI 10760 $rbx: .cfa -56 + ^ .cfa: $rsp 56 +
STACK CFI 10767 .cfa: $rsp 96 +
STACK CFI 107c5 .cfa: $rsp 56 +
STACK CFI 107c6 .cfa: $rsp 48 +
STACK CFI 107c7 .cfa: $rsp 40 +
STACK CFI 107c9 .cfa: $rsp 32 +
STACK CFI 107cb .cfa: $rsp 24 +
STACK CFI 107cd .cfa: $rsp 16 +
STACK CFI 107cf .cfa: $rsp 8 +
STACK CFI 107d0 .cfa: $rsp 96 +
STACK CFI INIT c9d0 cee .cfa: $rsp 8 + .ra: .cfa -8 + ^
STACK CFI c9d2 $r15: .cfa -16 + ^ .cfa: $rsp 16 +
STACK CFI c9d4 $r14: .cfa -24 + ^ .cfa: $rsp 24 +
STACK CFI c9d6 $r13: .cfa -32 + ^ .cfa: $rsp 32 +
STACK CFI c9d8 $r12: .cfa -40 + ^ .cfa: $rsp 40 +
STACK CFI c9d9 $rbp: .cfa -48 + ^ .cfa: $rsp 48 +
STACK CFI c9da $rbx: .cfa -56 + ^ .cfa: $rsp 56 +
STACK CFI c9e4 .cfa: $rsp 2368 +
STACK CFI cc53 .cfa: $rsp 56 +
STACK CFI cc54 .cfa: $rsp 48 +
STACK CFI cc55 .cfa: $rsp 40 +
STACK CFI cc57 .cfa: $rsp 32 +
STACK CFI cc59 .cfa: $rsp 24 +
STACK CFI cc5b .cfa: $rsp 16 +
STACK CFI cc5d .cfa: $rsp 8 +
STACK CFI cc60 .cfa: $rsp 2368 +
STACK CFI INIT 10a60 3c4 .cfa: $rsp 8 + .ra: .cfa -8 + ^
STACK CFI 10a62 $r15: .cfa -16 + ^ .cfa: $rsp 16 +
STACK CFI 10a64 $r14: .cfa -24 + ^ .cfa: $rsp 24 +
STACK CFI 10a66 $r13: .cfa -32 + ^ .cfa: $rsp 32 +
STACK CFI 10a68 $r12: .cfa -40 + ^ .cfa: $rsp 40 +
STACK CFI 10a69 $rbp: .cfa -48 + ^ .cfa: $rsp 48 +
STACK CFI 10a6d $rbx: .cfa -56 + ^ .cfa: $rsp 56 +
STACK CFI 10a71 .cfa: $rsp 96 +
STACK CFI 10c88 .cfa: $rsp 56 +
STACK CFI 10c89 .cfa: $rsp 48 +
STACK CFI 10c8a .cfa: $rsp 40 +
STACK CFI 10c8c .cfa: $rsp 32 +
STACK CFI 10c8e .cfa: $rsp 24 +
STACK CFI 10c90 .cfa: $rsp 16 +
STACK CFI 10c92 .cfa: $rsp 8 +
STACK CFI 10c98 .cfa: $rsp 96 +
STACK CFI 10d09 .cfa: $rsp 56 +
STACK CFI 10d11 .cfa: $rsp 48 +
STACK CFI 10d12 .cfa: $rsp 40 +
STACK CFI 10d14 .cfa: $rsp 32 +
STACK CFI 10d16 .cfa: $rsp 24 +
STACK CFI 10d18 .cfa: $rsp 16 +
STACK CFI 10d1a .cfa: $rsp 8 +
STACK CFI 10d20 .cfa: $rsp 96 +
STACK CFI INIT d6c0 1e1c .cfa: $rsp 8 + .ra: .cfa -8 + ^
STACK CFI d6c2 $r15: .cfa -16 + ^ .cfa: $rsp 16 +
STACK CFI d6cd $r14: .cfa -24 + ^ .cfa: $rsp 24 +
STACK CFI d6cf $r13: .cfa -32 + ^ .cfa: $rsp 32 +
STACK CFI d6d1 $r12: .cfa -40 + ^ .cfa: $rsp 40 +
STACK CFI d6d2 $rbp: .cfa -48 + ^ .cfa: $rsp 48 +
STACK CFI d6d3 $rbx: .cfa -56 + ^ .cfa: $rsp 56 +
STACK CFI d6dd .cfa: $rsp 3840 +
STACK CFI d817 .cfa: $rsp 56 +
STACK CFI d81a .cfa: $rsp 48 +
STACK CFI d81b .cfa: $rsp 40 +
STACK CFI d81d .cfa: $rsp 32 +
STACK CFI d81f .cfa: $rsp 24 +
STACK CFI d821 .cfa: $rsp 16 +
STACK CFI d823 .cfa: $rsp 8 +
STACK CFI d828 .cfa: $rsp 3840 +
STACK CFI INIT f4e0 3e0 .cfa: $rsp 8 + .ra: .cfa -8 + ^
STACK CFI f4e2 $r15: .cfa -16 + ^ .cfa: $rsp 16 +
STACK CFI f4e7 $r14: .cfa -24 + ^ .cfa: $rsp 24 +
STACK CFI f4ee $r13: .cfa -32 + ^ .cfa: $rsp 32 +
STACK CFI f4f3 $r12: .cfa -40 + ^ .cfa: $rsp 40 +
STACK CFI f4f7 $rbp: .cfa -48 + ^ .cfa: $rsp 48 +
STACK CFI f4f8 $rbx: .cfa -56 + ^ .cfa: $rsp 56 +
STACK CFI f4ff .cfa: $rsp 384 +
STACK CFI f549 .cfa: $rsp 56 +
STACK CFI f54c .cfa: $rsp 48 +
STACK CFI f54d .cfa: $rsp 40 +
STACK CFI f54f .cfa: $rsp 32 +
STACK CFI f551 .cfa: $rsp 24 +
STACK CFI f553 .cfa: $rsp 16 +
STACK CFI f555 .cfa: $rsp 8 +
STACK CFI f560 .cfa: $rsp 384 +
STACK CFI INIT f8c0 e1 .cfa: $rsp 8 + .ra: .cfa -8 + ^
STACK CFI f8c2 $r13: .cfa -16 + ^ .cfa: $rsp 16 +
STACK CFI f8d8 $r12: .cfa -24 + ^ .cfa: $rsp 24 +
STACK CFI f8d9 $rbp: .cfa -32 + ^ .cfa: $rsp 32 +
STACK CFI f8da $rbx: .cfa -40 + ^ .cfa: $rsp 40 +
STACK CFI f8de .cfa: $rsp 96 +
STACK CFI f954 .cfa: $rsp 40 +
STACK CFI f958 .cfa: $rsp 32 +
STACK CFI f959 .cfa: $rsp 24 +
STACK CFI f95b .cfa: $rsp 16 +
STACK CFI f95d .cfa: $rsp 8 +
STACK CFI f95e .cfa: $rsp 96 +
STACK CFI INIT f9b0 e1 .cfa: $rsp 8 + .ra: .cfa -8 + ^
STACK CFI f9b2 $r13: .cfa -16 + ^ .cfa: $rsp 16 +
STACK CFI f9c5 $r12: .cfa -24 + ^ .cfa: $rsp 24 +
STACK CFI f9c8 $rbp: .cfa -32 + ^ .cfa: $rsp 32 +
STACK CFI f9c9 $rbx: .cfa -40 + ^ .cfa: $rsp 40 +
STACK CFI f9cd .cfa: $rsp 96 +
STACK CFI fa44 .cfa: $rsp 40 +
STACK CFI fa48 .cfa: $rsp 32 +
STACK CFI fa49 .cfa: $rsp 24 +
STACK CFI fa4b .cfa: $rsp 16 +
STACK CFI fa4d .cfa: $rsp 8 +
STACK CFI fa4e .cfa: $rsp 96 +
STACK CFI INIT faa0 2b .cfa: $rsp 8 + .ra: .cfa -8 + ^
STACK CFI faa4 .cfa: $rsp 32 +
STACK CFI faca .cfa: $rsp 8 +
STACK CFI INIT fad0 2a .cfa: $rsp 8 + .ra: .cfa -8 + ^
STACK CFI fad4 .cfa: $rsp 32 +
STACK CFI faf9 .cfa: $rsp 8 +
STACK CFI INIT fb00 2c .cfa: $rsp 8 + .ra: .cfa -8 + ^
STACK CFI fb04 .cfa: $rsp 32 +
STACK CFI fb2b .cfa: $rsp 8 +
STACK CFI INIT fb30 2b .cfa: $rsp 8 + .ra: .cfa -8 + ^
STACK CFI fb34 .cfa: $rsp 32 +
STACK CFI fb5a .cfa: $rsp 8 +
STACK CFI INIT fb60 452 .cfa: $rsp 8 + .ra: .cfa -8 + ^
STACK CFI fb62 $r15: .cfa -16 + ^ .cfa: $rsp 16 +
STACK CFI fb64 $r14: .cfa -24 + ^ .cfa: $rsp 24 +
STACK CFI fb69 $r13: .cfa -32 + ^ .cfa: $rsp 32 +
STACK CFI fb6b $r12: .cfa -40 + ^ .cfa: $rsp 40 +
STACK CFI fb6c $rbp: .cfa -48 + ^ .cfa: $rsp 48 +
STACK CFI fb6d $rbx: .cfa -56 + ^ .cfa: $rsp 56 +
STACK CFI fb76 .cfa: $rsp 432 +
STACK CFI fd85 .cfa: $rsp 56 +
STACK CFI fd88 .cfa: $rsp 48 +
STACK CFI fd89 .cfa: $rsp 40 +
STACK CFI fd8b .cfa: $rsp 32 +
STACK CFI fd8d .cfa: $rsp 24 +
STACK CFI fd8f .cfa: $rsp 16 +
STACK CFI fd91 .cfa: $rsp 8 +
STACK CFI fd98 .cfa: $rsp 432 +
STACK CFI INIT ffc0 302 .cfa: $rsp 8 + .ra: .cfa -8 + ^
STACK CFI ffc2 $r15: .cfa -16 + ^ .cfa: $rsp 16 +
STACK CFI ffc7 $r14: .cfa -24 + ^ .cfa: $rsp 24 +
STACK CFI ffc9 $r13: .cfa -32 + ^ .cfa: $rsp 32 +
STACK CFI ffcb $r12: .cfa -40 + ^ .cfa: $rsp 40 +
STACK CFI ffcf $rbp: .cfa -48 + ^ .cfa: $rsp 48 +
STACK CFI ffd0 $rbx: .cfa -56 + ^ .cfa: $rsp 56 +
STACK CFI ffd7 .cfa: $rsp 208 +
STACK CFI 10126 .cfa: $rsp 56 +
STACK CFI 10129 .cfa: $rsp 48 +
STACK CFI 1012a .cfa: $rsp 40 +
STACK CFI 1012c .cfa: $rsp 32 +
STACK CFI 1012e .cfa: $rsp 24 +
STACK CFI 10130 .cfa: $rsp 16 +
STACK CFI 10132 .cfa: $rsp 8 +
STACK CFI 10138 .cfa: $rsp 208 +
STACK CFI INIT 591a 20 .cfa: $rsp 8 + .ra: .cfa -8 + ^
STACK CFI 5922 .cfa: $rsp 16 +
STACK CFI INIT 593a 20 .cfa: $rsp 8 + .ra: .cfa -8 + ^
STACK CFI 5942 .cfa: $rsp 16 +
STACK CFI INIT 10e30 1a .cfa: $rsp 8 + .ra: .cfa -8 + ^
STACK CFI INIT 10e50 78 .cfa: $rsp 8 + .ra: .cfa -8 + ^
STACK CFI 10e52 $r12: .cfa -16 + ^ .cfa: $rsp 16 +
STACK CFI 10e56 $rbp: .cfa -24 + ^ .cfa: $rsp 24 +
STACK CFI 10e57 $rbx: .cfa -32 + ^ .cfa: $rsp 32 +
STACK CFI 10e8f .cfa: $rsp 24 +
STACK CFI 10e90 .cfa: $rsp 16 +
STACK CFI 10e92 .cfa: $rsp 8 +
STACK CFI 10e98 .cfa: $rsp 32 +
STACK CFI 10ea5 .cfa: $rsp 24 +
STACK CFI 10ea6 .cfa: $rsp 16 +
STACK CFI 10ea8 .cfa: $rsp 8 +
STACK CFI 10ea9 .cfa: $rsp 32 +
STACK CFI INIT 10ed0 2c .cfa: $rsp 8 + .ra: .cfa -8 + ^
STACK CFI 10ee4 .cfa: $rsp 16 +
STACK CFI INIT 10f00 69 .cfa: $rsp 8 + .ra: .cfa -8 + ^
STACK CFI 10f01 $rbp: .cfa -16 + ^ .cfa: $rsp 16 +
STACK CFI 10f07 $rbx: .cfa -24 + ^ .cfa: $rsp 24 +
STACK CFI 10f0e .cfa: $rsp 32 +
STACK CFI 10f48 .cfa: $rsp 24 +
STACK CFI 10f49 .cfa: $rsp 16 +
STACK CFI 10f4a .cfa: $rsp 8 +
STACK CFI 10f50 .cfa: $rsp 32 +
STACK CFI 10f64 .cfa: $rsp 24 +
STACK CFI 10f67 .cfa: $rsp 16 +
STACK CFI 10f68 .cfa: $rsp 8 +
STACK CFI INIT 10f70 15 .cfa: $rsp 8 + .ra: .cfa -8 + ^
STACK CFI INIT 10f90 b6 .cfa: $rsp 8 + .ra: .cfa -8 + ^
STACK CFI 10f92 $r13: .cfa -16 + ^ .cfa: $rsp 16 +
STACK CFI 10f94 $r12: .cfa -24 + ^ .cfa: $rsp 24 +
STACK CFI 10f95 $rbp: .cfa -32 + ^ .cfa: $rsp 32 +
STACK CFI 10f96 $rbx: .cfa -40 + ^ .cfa: $rsp 40 +
STACK CFI 10f9a .cfa: $rsp 48 +
STACK CFI 10fcd .cfa: $rsp 40 +
STACK CFI 10fce .cfa: $rsp 32 +
STACK CFI 10fcf .cfa: $rsp 24 +
STACK CFI 10fd1 .cfa: $rsp 16 +
STACK CFI 10fd3 .cfa: $rsp 8 +
STACK CFI 10fd8 .cfa: $rsp 48 +
STACK CFI INIT 11050 ff .cfa: $rsp 8 + .ra: .cfa -8 + ^
STACK CFI 11051 $rbp: .cfa -16 + ^ .cfa: $rsp 16 +
STACK CFI 11055 $rbx: .cfa -24 + ^ .cfa: $rsp 24 +
STACK CFI 11059 .cfa: $rsp 32 +
STACK CFI 110db .cfa: $rsp 24 +
STACK CFI 110dc .cfa: $rsp 16 +
STACK CFI 110dd .cfa: $rsp 8 +
STACK CFI 110e0 .cfa: $rsp 32 +
STACK CFI 110ed .cfa: $rsp 24 +
STACK CFI 110f0 .cfa: $rsp 16 +
STACK CFI 110f1 .cfa: $rsp 8 +
STACK CFI 110f2 .cfa: $rsp 32 +
STACK CFI INIT 11150 b4 .cfa: $rsp 8 + .ra: .cfa -8 + ^
STACK CFI 11152 $r15: .cfa -16 + ^ .cfa: $rsp 16 +
STACK CFI 11154 $r14: .cfa -24 + ^ .cfa: $rsp 24 +
STACK CFI 11156 $r13: .cfa -32 + ^ .cfa: $rsp 32 +
STACK CFI 11158 $r12: .cfa -40 + ^ .cfa: $rsp 40 +
STACK CFI 11159 $rbp: .cfa -48 + ^ .cfa: $rsp 48 +
STACK CFI 1115a $rbx: .cfa -56 + ^ .cfa: $rsp 56 +
STACK CFI 11160 .cfa: $rsp 80 +
STACK CFI 111ed .cfa: $rsp 56 +
STACK CFI 111ee .cfa: $rsp 48 +
STACK CFI 111ef .cfa: $rsp 40 +
STACK CFI 111f1 .cfa: $rsp 32 +
STACK CFI 111f3 .cfa: $rsp 24 +
STACK CFI 111f5 .cfa: $rsp 16 +
STACK CFI 111f7 .cfa: $rsp 8 +
STACK CFI 111f8 .cfa: $rsp 80 +
STACK CFI INIT 11210 b5 .cfa: $rsp 8 + .ra: .cfa -8 + ^
STACK CFI 11212 $r15: .cfa -16 + ^ .cfa: $rsp 16 +
STACK CFI 11214 $r14: .cfa -24 + ^ .cfa: $rsp 24 +
STACK CFI 11216 $r13: .cfa -32 + ^ .cfa: $rsp 32 +
STACK CFI 11218 $r12: .cfa -40 + ^ .cfa: $rsp 40 +
STACK CFI 11219 $rbp: .cfa -48 + ^ .cfa: $rsp 48 +
STACK CFI 1121a $rbx: .cfa -56 + ^ .cfa: $rsp 56 +
STACK CFI 11220 .cfa: $rsp 80 +
STACK CFI 112ae .cfa: $rsp 56 +
STACK CFI 112af .cfa: $rsp 48 +
STACK CFI 112b0 .cfa: $rsp 40 +
STACK CFI 112b2 .cfa: $rsp 32 +
STACK CFI 112b4 .cfa: $rsp 24 +
STACK CFI 112b6 .cfa: $rsp 16 +
STACK CFI 112b8 .cfa: $rsp 8 +
STACK CFI 112b9 .cfa: $rsp 80 +
STACK CFI INIT 112d0 41 .cfa: $rsp 8 + .ra: .cfa -8 + ^
STACK CFI 112d1 $rbx: .cfa -16 + ^ .cfa: $rsp 16 +
STACK CFI 112f1 .cfa: $rsp 8 +
STACK CFI 112f2 .cfa: $rsp 16 +
STACK CFI INIT 11320 88 .cfa: $rsp 8 + .ra: .cfa -8 + ^
STACK CFI 11324 .cfa: $rsp 16 +
STACK CFI 11347 .cfa: $rsp 8 +
STACK CFI 1134c .cfa: $rsp 16 +
STACK CFI INIT 113b0 c1 .cfa: $rsp 8 + .ra: .cfa -8 + ^
STACK CFI 113b2 $r12: .cfa -16 + ^ .cfa: $rsp 16 +
STACK CFI 113b3 $rbp: .cfa -24 + ^ .cfa: $rsp 24 +
STACK CFI 113b7 $rbx: .cfa -32 + ^ .cfa: $rsp 32 +
STACK CFI 113bb .cfa: $rsp 64 +
STACK CFI 113f3 .cfa: $rsp 32 +
STACK CFI 113f6 .cfa: $rsp 24 +
STACK CFI 113f7 .cfa: $rsp 16 +
STACK CFI 113f9 .cfa: $rsp 8 +
STACK CFI 11400 .cfa: $rsp 64 +
STACK CFI 1142e .cfa: $rsp 32 +
STACK CFI 1142f .cfa: $rsp 24 +
STACK CFI 11430 .cfa: $rsp 16 +
STACK CFI 11432 .cfa: $rsp 8 +
STACK CFI 11433 .cfa: $rsp 64 +
STACK CFI INIT 114a0 22 .cfa: $rsp 8 + .ra: .cfa -8 + ^
STACK CFI INIT 114d0 1d9 .cfa: $rsp 8 + .ra: .cfa -8 + ^
STACK CFI 114d2 $r15: .cfa -16 + ^ .cfa: $rsp 16 +
STACK CFI 114d4 $r14: .cfa -24 + ^ .cfa: $rsp 24 +
STACK CFI 114d6 $r13: .cfa -32 + ^ .cfa: $rsp 32 +
STACK CFI 114d8 $r12: .cfa -40 + ^ .cfa: $rsp 40 +
STACK CFI 114d9 $rbp: .cfa -48 + ^ .cfa: $rsp 48 +
STACK CFI 114dd $rbx: .cfa -56 + ^ .cfa: $rsp 56 +
STACK CFI 114e1 .cfa: $rsp 128 +
STACK CFI 115c8 .cfa: $rsp 56 +
STACK CFI 115cb .cfa: $rsp 48 +
STACK CFI 115cc .cfa: $rsp 40 +
STACK CFI 115ce .cfa: $rsp 32 +
STACK CFI 115d0 .cfa: $rsp 24 +
STACK CFI 115d2 .cfa: $rsp 16 +
STACK CFI 115d4 .cfa: $rsp 8 +
STACK CFI 115d8 .cfa: $rsp 128 +
STACK CFI INIT 11480 5 .cfa: $rsp 8 + .ra: .cfa -8 + ^
STACK CFI INIT 116b0 1d7 .cfa: $rsp 8 + .ra: .cfa -8 + ^
STACK CFI 116b2 $r15: .cfa -16 + ^ .cfa: $rsp 16 +
STACK CFI 116b4 $r14: .cfa -24 + ^ .cfa: $rsp 24 +
STACK CFI 116b6 $r13: .cfa -32 + ^ .cfa: $rsp 32 +
STACK CFI 116b8 $r12: .cfa -40 + ^ .cfa: $rsp 40 +
STACK CFI 116b9 $rbp: .cfa -48 + ^ .cfa: $rsp 48 +
STACK CFI 116bd $rbx: .cfa -56 + ^ .cfa: $rsp 56 +
STACK CFI 116c1 .cfa: $rsp 128 +
STACK CFI 117a7 .cfa: $rsp 56 +
STACK CFI 117aa .cfa: $rsp 48 +
STACK CFI 117ab .cfa: $rsp 40 +
STACK CFI 117ad .cfa: $rsp 32 +
STACK CFI 117af .cfa: $rsp 24 +
STACK CFI 117b1 .cfa: $rsp 16 +
STACK CFI 117b3 .cfa: $rsp 8 +
STACK CFI 117b8 .cfa: $rsp 128 +
STACK CFI INIT 11490 5 .cfa: $rsp 8 + .ra: .cfa -8 + ^
STACK CFI INIT 11890 91 .cfa: $rsp 8 + .ra: .cfa -8 + ^
STACK CFI 11892 $r15: .cfa -16 + ^ .cfa: $rsp 16 +
STACK CFI 1189b $r14: .cfa -24 + ^ .cfa: $rsp 24 +
STACK CFI 118a4 $r13: .cfa -32 + ^ .cfa: $rsp 32 +
STACK CFI 118a6 $r12: .cfa -40 + ^ .cfa: $rsp 40 +
STACK CFI 118a7 $rbp: .cfa -48 + ^ .cfa: $rsp 48 +
STACK CFI 118ab $rbx: .cfa -56 + ^ .cfa: $rsp 56 +
STACK CFI 118b3 .cfa: $rsp 80 +
STACK CFI 118fc .cfa: $rsp 56 +
STACK CFI 118fd .cfa: $rsp 48 +
STACK CFI 11900 .cfa: $rsp 40 +
STACK CFI 11902 .cfa: $rsp 32 +
STACK CFI 11904 .cfa: $rsp 24 +
STACK CFI 11906 .cfa: $rsp 16 +
STACK CFI 11908 .cfa: $rsp 8 +
STACK CFI 11910 .cfa: $rsp 80 +
STACK CFI 11914 .cfa: $rsp 56 +
STACK CFI 11917 .cfa: $rsp 48 +
STACK CFI 11918 .cfa: $rsp 40 +
STACK CFI 1191a .cfa: $rsp 32 +
STACK CFI 1191c .cfa: $rsp 24 +
STACK CFI 1191e .cfa: $rsp 16 +
STACK CFI 11920 .cfa: $rsp 8 +
STACK CFI INIT 11930 56 .cfa: $rsp 8 + .ra: .cfa -8 + ^
STACK CFI 11931 $rbx: .cfa -16 + ^ .cfa: $rsp 16 +
STACK CFI 1193d .cfa: $rsp 48 +
STACK CFI 11984 .cfa: $rsp 16 +
STACK CFI 11985 .cfa: $rsp 8 +
STACK CFI INIT 11990 15b .cfa: $rsp 8 + .ra: .cfa -8 + ^
STACK CFI 11992 $r14: .cfa -16 + ^ .cfa: $rsp 16 +
STACK CFI 11994 $r13: .cfa -24 + ^ .cfa: $rsp 24 +
STACK CFI 11996 $r12: .cfa -32 + ^ .cfa: $rsp 32 +
STACK CFI 1199a $rbp: .cfa -40 + ^ .cfa: $rsp 40 +
STACK CFI 1199e $rbx: .cfa -48 + ^ .cfa: $rsp 48 +
STACK CFI 119a2 .cfa: $rsp 80 +
STACK CFI 11a89 .cfa: $rsp 48 +
STACK CFI 11a8d .cfa: $rsp 40 +
STACK CFI 11a8e .cfa: $rsp 32 +
STACK CFI 11a90 .cfa: $rsp 24 +
STACK CFI 11a92 .cfa: $rsp 16 +
STACK CFI 11a94 .cfa: $rsp 8 +
STACK CFI 11a98 .cfa: $rsp 80 +
STACK CFI INIT 11cd0 283 .cfa: $rsp 8 + .ra: .cfa -8 + ^
STACK CFI 11cd2 $r15: .cfa -16 + ^ .cfa: $rsp 16 +
STACK CFI 11cd4 $r14: .cfa -24 + ^ .cfa: $rsp 24 +
STACK CFI 11cd6 $r13: .cfa -32 + ^ .cfa: $rsp 32 +
STACK CFI 11cd8 $r12: .cfa -40 + ^ .cfa: $rsp 40 +
STACK CFI 11cdc $rbp: .cfa -48 + ^ .cfa: $rsp 48 +
STACK CFI 11cdd $rbx: .cfa -56 + ^ .cfa: $rsp 56 +
STACK CFI 11ce1 .cfa: $rsp 80 +
STACK CFI 11d78 .cfa: $rsp 56 +
STACK CFI 11d79 .cfa: $rsp 48 +
STACK CFI 11d7a .cfa: $rsp 40 +
STACK CFI 11d7c .cfa: $rsp 32 +
STACK CFI 11d7e .cfa: $rsp 24 +
STACK CFI 11d80 .cfa: $rsp 16 +
STACK CFI 11d82 .cfa: $rsp 8 +
STACK CFI 11d88 .cfa: $rsp 80 +
STACK CFI 11e71 .cfa: $rsp 56 +
STACK CFI 11e72 .cfa: $rsp 48 +
STACK CFI 11e73 .cfa: $rsp 40 +
STACK CFI 11e75 .cfa: $rsp 32 +
STACK CFI 11e77 .cfa: $rsp 24 +
STACK CFI 11e79 .cfa: $rsp 16 +
STACK CFI 11e7b .cfa: $rsp 8 +
STACK CFI 11e80 .cfa: $rsp 80 +
STACK CFI 11f10 .cfa: $rsp 56 +
STACK CFI 11f11 .cfa: $rsp 48 +
STACK CFI 11f12 .cfa: $rsp 40 +
STACK CFI 11f14 .cfa: $rsp 32 +
STACK CFI 11f16 .cfa: $rsp 24 +
STACK CFI 11f18 .cfa: $rsp 16 +
STACK CFI 11f1a .cfa: $rsp 8 +
STACK CFI 11f20 .cfa: $rsp 80 +
STACK CFI INIT 11af0 ed .cfa: $rsp 8 + .ra: .cfa -8 + ^
STACK CFI 11af2 $r12: .cfa -16 + ^ .cfa: $rsp 16 +
STACK CFI 11af3 $rbp: .cfa -24 + ^ .cfa: $rsp 24 +
STACK CFI 11af7 $rbx: .cfa -32 + ^ .cfa: $rsp 32 +
STACK CFI 11afe .cfa: $rsp 64 +
STACK CFI 11b9a .cfa: $rsp 32 +
STACK CFI 11b9b .cfa: $rsp 24 +
STACK CFI 11b9c .cfa: $rsp 16 +
STACK CFI 11b9e .cfa: $rsp 8 +
STACK CFI 11ba0 .cfa: $rsp 64 +
STACK CFI 11bb4 .cfa: $rsp 32 +
STACK CFI 11bb5 .cfa: $rsp 24 +
STACK CFI 11bb6 .cfa: $rsp 16 +
STACK CFI 11bb8 .cfa: $rsp 8 +
STACK CFI 11bc0 .cfa: $rsp 64 +
STACK CFI INIT 11be0 ed .cfa: $rsp 8 + .ra: .cfa -8 + ^
STACK CFI 11be2 $r12: .cfa -16 + ^ .cfa: $rsp 16 +
STACK CFI 11be3 $rbp: .cfa -24 + ^ .cfa: $rsp 24 +
STACK CFI 11be7 $rbx: .cfa -32 + ^ .cfa: $rsp 32 +
STACK CFI 11bee .cfa: $rsp 64 +
STACK CFI 11c88 .cfa: $rsp 32 +
STACK CFI 11c89 .cfa: $rsp 24 +
STACK CFI 11c8a .cfa: $rsp 16 +
STACK CFI 11c8c .cfa: $rsp 8 +
STACK CFI 11c90 .cfa: $rsp 64 +
STACK CFI 11ca4 .cfa: $rsp 32 +
STACK CFI 11ca5 .cfa: $rsp 24 +
STACK CFI 11ca6 .cfa: $rsp 16 +
STACK CFI 11ca8 .cfa: $rsp 8 +
STACK CFI 11cb0 .cfa: $rsp 64 +
STACK CFI INIT 11f60 1f .cfa: $rsp 8 + .ra: .cfa -8 + ^
STACK CFI 11f6b .cfa: $rsp 16 +
STACK CFI 11f7e .cfa: $rsp 8 +
STACK CFI INIT 11f80 5 .cfa: $rsp 8 + .ra: .cfa -8 + ^
STACK CFI INIT 11f90 44f .cfa: $rsp 8 + .ra: .cfa -8 + ^
STACK CFI 11f92 $r15: .cfa -16 + ^ .cfa: $rsp 16 +
STACK CFI 11f94 $r14: .cfa -24 + ^ .cfa: $rsp 24 +
STACK CFI 11f96 $r13: .cfa -32 + ^ .cfa: $rsp 32 +
STACK CFI 11f98 $r12: .cfa -40 + ^ .cfa: $rsp 40 +
STACK CFI 11f99 $rbp: .cfa -48 + ^ .cfa: $rsp 48 +
STACK CFI 11f9a $rbx: .cfa -56 + ^ .cfa: $rsp 56 +
STACK CFI 11fa1 .cfa: $rsp 96 +
STACK CFI 11fe7 .cfa: $rsp 56 +
STACK CFI 11fea .cfa: $rsp 48 +
STACK CFI 11feb .cfa: $rsp 40 +
STACK CFI 11fed .cfa: $rsp 32 +
STACK CFI 11fef .cfa: $rsp 24 +
STACK CFI 11ff1 .cfa: $rsp 16 +
STACK CFI 11ff3 .cfa: $rsp 8 +
STACK CFI 11ff8 .cfa: $rsp 96 +
STACK CFI 1212e .cfa: $rsp 56 +
STACK CFI 1212f .cfa: $rsp 48 +
STACK CFI 12130 .cfa: $rsp 40 +
STACK CFI 12132 .cfa: $rsp 32 +
STACK CFI 12134 .cfa: $rsp 24 +
STACK CFI 12136 .cfa: $rsp 16 +
STACK CFI 12138 .cfa: $rsp 8 +
STACK CFI 12139 .cfa: $rsp 96 +
STACK CFI INIT 123e0 26f .cfa: $rsp 8 + .ra: .cfa -8 + ^
STACK CFI 123e2 $r14: .cfa -16 + ^ .cfa: $rsp 16 +
STACK CFI 123e7 $r13: .cfa -24 + ^ .cfa: $rsp 24 +
STACK CFI 123e9 $r12: .cfa -32 + ^ .cfa: $rsp 32 +
STACK CFI 123ea $rbp: .cfa -40 + ^ .cfa: $rsp 40 +
STACK CFI 123eb $rbx: .cfa -48 + ^ .cfa: $rsp 48 +
STACK CFI 1242a .cfa: $rsp 40 +
STACK CFI 1242b .cfa: $rsp 32 +
STACK CFI 1242d .cfa: $rsp 24 +
STACK CFI 1242f .cfa: $rsp 16 +
STACK CFI 12433 .cfa: $rsp 8 +
STACK CFI 12438 .cfa: $rsp 48 +
STACK CFI 124d6 .cfa: $rsp 40 +
STACK CFI 124d7 .cfa: $rsp 32 +
STACK CFI 124d9 .cfa: $rsp 24 +
STACK CFI 124db .cfa: $rsp 16 +
STACK CFI 124e0 .cfa: $rsp 8 +
STACK CFI 124e1 .cfa: $rsp 48 +
STACK CFI INIT 12650 13 .cfa: $rsp 8 + .ra: .cfa -8 + ^
STACK CFI 12654 .cfa: $rsp 32 +
STACK CFI 12662 .cfa: $rsp 8 +
STACK CFI INIT 12670 1ff .cfa: $rsp 8 + .ra: .cfa -8 + ^
STACK CFI 12672 $r14: .cfa -16 + ^ .cfa: $rsp 16 +
STACK CFI 12674 $r13: .cfa -24 + ^ .cfa: $rsp 24 +
STACK CFI 12676 $r12: .cfa -32 + ^ .cfa: $rsp 32 +
STACK CFI 1267a $rbp: .cfa -40 + ^ .cfa: $rsp 40 +
STACK CFI 1267b $rbx: .cfa -48 + ^ .cfa: $rsp 48 +
STACK CFI 12687 .cfa: $rsp 96 +
STACK CFI 12704 .cfa: $rsp 48 +
STACK CFI 12705 .cfa: $rsp 40 +
STACK CFI 12706 .cfa: $rsp 32 +
STACK CFI 12708 .cfa: $rsp 24 +
STACK CFI 1270a .cfa: $rsp 16 +
STACK CFI 1270c .cfa: $rsp 8 +
STACK CFI 12710 .cfa: $rsp 96 +
STACK CFI 12866 .cfa: $rsp 48 +
STACK CFI 12867 .cfa: $rsp 40 +
STACK CFI 12868 .cfa: $rsp 32 +
STACK CFI 1286a .cfa: $rsp 24 +
STACK CFI 1286c .cfa: $rsp 16 +
STACK CFI 1286e .cfa: $rsp 8 +
STACK CFI INIT 12870 5f .cfa: $rsp 8 + .ra: .cfa -8 + ^
STACK CFI 12871 $rbp: .cfa -16 + ^ .cfa: $rsp 16 +
STACK CFI 12877 $rbx: .cfa -24 + ^ .cfa: $rsp 24 +
STACK CFI 1287b .cfa: $rsp 64 +
STACK CFI 128b1 .cfa: $rsp 24 +
STACK CFI 128b2 .cfa: $rsp 16 +
STACK CFI 128b3 .cfa: $rsp 8 +
STACK CFI 128b8 .cfa: $rsp 64 +
STACK CFI INIT 128d0 f8 .cfa: $rsp 8 + .ra: .cfa -8 + ^
STACK CFI 128d2 $r13: .cfa -16 + ^ .cfa: $rsp 16 +
STACK CFI 128d4 $r12: .cfa -24 + ^ .cfa: $rsp 24 +
STACK CFI 128d5 $rbp: .cfa -32 + ^ .cfa: $rsp 32 +
STACK CFI 128d6 $rbx: .cfa -40 + ^ .cfa: $rsp 40 +
STACK CFI 129ac .cfa: $rsp 32 +
STACK CFI 129ad .cfa: $rsp 24 +
STACK CFI 129af .cfa: $rsp 16 +
STACK CFI 129b1 .cfa: $rsp 8 +
STACK CFI 129b2 .cfa: $rsp 40 +
STACK CFI 129c2 .cfa: $rsp 32 +
STACK CFI 129c3 .cfa: $rsp 24 +
STACK CFI 129c5 .cfa: $rsp 16 +
STACK CFI 129c7 .cfa: $rsp 8 +
STACK CFI INIT 12b00 16 .cfa: $rsp 8 + .ra: .cfa -8 + ^
STACK CFI 12b04 .cfa: $rsp 16 +
STACK CFI 12b0f .cfa: $rsp 8 +
STACK CFI INIT 129d0 73 .cfa: $rsp 8 + .ra: .cfa -8 + ^
STACK CFI 129d1 $rbx: .cfa -16 + ^ .cfa: $rsp 16 +
STACK CFI 12a42 .cfa: $rsp 8 +
STACK CFI INIT 12a50 ad .cfa: $rsp 8 + .ra: .cfa -8 + ^
STACK CFI 12a51 $rbx: .cfa -16 + ^ .cfa: $rsp 16 +
STACK CFI 12a55 .cfa: $rsp 32 +
STACK CFI 12ada .cfa: $rsp 16 +
STACK CFI 12add .cfa: $rsp 8 +
STACK CFI 12ade .cfa: $rsp 32 +
STACK CFI INIT 12b20 1e .cfa: $rsp 8 + .ra: .cfa -8 + ^
STACK CFI INIT 12b40 33 .cfa: $rsp 8 + .ra: .cfa -8 + ^
STACK CFI INIT 12b80 56 .cfa: $rsp 8 + .ra: .cfa -8 + ^
STACK CFI INIT 12be0 4c .cfa: $rsp 8 + .ra: .cfa -8 + ^
STACK CFI INIT 12c30 36 .cfa: $rsp 8 + .ra: .cfa -8 + ^
STACK CFI INIT 12c70 3a .cfa: $rsp 8 + .ra: .cfa -8 + ^
STACK CFI INIT 12cb0 2b .cfa: $rsp 8 + .ra: .cfa -8 + ^
STACK CFI INIT 12ce0 26 .cfa: $rsp 8 + .ra: .cfa -8 + ^
STACK CFI INIT 12d10 2b .cfa: $rsp 8 + .ra: .cfa -8 + ^
STACK CFI INIT 12d40 64 .cfa: $rsp 8 + .ra: .cfa -8 + ^
STACK CFI INIT 12db0 3a .cfa: $rsp 8 + .ra: .cfa -8 + ^
STACK CFI INIT 12df0 1f .cfa: $rsp 8 + .ra: .cfa -8 + ^
STACK CFI INIT 12e10 38 .cfa: $rsp 8 + .ra: .cfa -8 + ^
STACK CFI INIT 12e50 45 .cfa: $rsp 8 + .ra: .cfa -8 + ^
STACK CFI 12e56 $rbx: .cfa -16 + ^ .cfa: $rsp 16 +
STACK CFI 12e73 $rbx: $rbx .cfa: $rsp 8 +
STACK CFI 12e78 $rbx: .cfa -16 + ^ .cfa: $rsp 16 +
STACK CFI 12e8c $rbx: $rbx .cfa: $rsp 8 +
STACK CFI 12e90 $rbx: .cfa -16 + ^ .cfa: $rsp 16 +
STACK CFI 12e94 $rbx: $rbx .cfa: $rsp 8 +
STACK CFI INIT 12ea0 46 .cfa: $rsp 8 + .ra: .cfa -8 + ^
STACK CFI INIT 12ef0 10 .cfa: $rsp 8 + .ra: .cfa -8 + ^
STACK CFI INIT 12f00 4b .cfa: $rsp 8 + .ra: .cfa -8 + ^
STACK CFI 12f01 $rbp: .cfa -16 + ^ .cfa: $rsp 16 +
STACK CFI 12f02 $rbx: .cfa -24 + ^ .cfa: $rsp 24 +
STACK CFI 12f09 .cfa: $rsp 32 +
STACK CFI 12f3c .cfa: $rsp 24 +
STACK CFI 12f3d .cfa: $rsp 16 +
STACK CFI 12f3e .cfa: $rsp 8 +
STACK CFI 12f40 .cfa: $rsp 32 +
STACK CFI INIT 12f50 5 .cfa: $rsp 8 + .ra: .cfa -8 + ^
STACK CFI INIT 12f60 17f .cfa: $rsp 8 + .ra: .cfa -8 + ^
STACK CFI 12f62 $r15: .cfa -16 + ^ .cfa: $rsp 16 +
STACK CFI 12f64 $r14: .cfa -24 + ^ .cfa: $rsp 24 +
STACK CFI 12f69 $r13: .cfa -32 + ^ .cfa: $rsp 32 +
STACK CFI 12f6e $r12: .cfa -40 + ^ .cfa: $rsp 40 +
STACK CFI 12f72 $rbp: .cfa -48 + ^ .cfa: $rsp 48 +
STACK CFI 12f75 $rbx: .cfa -56 + ^ .cfa: $rsp 56 +
STACK CFI 12f7c .cfa: $rsp 208 +
STACK CFI 130a4 .cfa: $rsp 56 +
STACK CFI 130a7 .cfa: $rsp 48 +
STACK CFI 130a8 .cfa: $rsp 40 +
STACK CFI 130aa .cfa: $rsp 32 +
STACK CFI 130ac .cfa: $rsp 24 +
STACK CFI 130ae .cfa: $rsp 16 +
STACK CFI 130b0 .cfa: $rsp 8 +
STACK CFI 130b8 .cfa: $rsp 208 +
STACK CFI INIT 130e0 14 .cfa: $rsp 8 + .ra: .cfa -8 + ^
STACK CFI INIT 13100 40 .cfa: $rsp 8 + .ra: .cfa -8 + ^
STACK CFI 13106 $rbx: .cfa -16 + ^ .cfa: $rsp 16 +
STACK CFI 13121 .cfa: $rsp 8 +
STACK CFI 13128 .cfa: $rsp 16 +
STACK CFI 1313f .cfa: $rsp 8 +
STACK CFI INIT 13370 f .cfa: $rsp 8 + .ra: .cfa -8 + ^
STACK CFI INIT 13140 f .cfa: $rsp 8 + .ra: .cfa -8 + ^
STACK CFI INIT 13380 13 .cfa: $rsp 8 + .ra: .cfa -8 + ^
STACK CFI INIT 13150 13 .cfa: $rsp 8 + .ra: .cfa -8 + ^
STACK CFI INIT 13170 1c5 .cfa: $rsp 8 + .ra: .cfa -8 + ^
STACK CFI 13172 $r15: .cfa -16 + ^ .cfa: $rsp 16 +
STACK CFI 1317b $r14: .cfa -24 + ^ .cfa: $rsp 24 +
STACK CFI 1317d $r13: .cfa -32 + ^ .cfa: $rsp 32 +
STACK CFI 1317f $r12: .cfa -40 + ^ .cfa: $rsp 40 +
STACK CFI 13180 $rbp: .cfa -48 + ^ .cfa: $rsp 48 +
STACK CFI 13184 $rbx: .cfa -56 + ^ .cfa: $rsp 56 +
STACK CFI 1318b .cfa: $rsp 208 +
STACK CFI 132e8 .cfa: $rsp 56 +
STACK CFI 132e9 .cfa: $rsp 48 +
STACK CFI 132ea .cfa: $rsp 40 +
STACK CFI 132ec .cfa: $rsp 32 +
STACK CFI 132ee .cfa: $rsp 24 +
STACK CFI 132f0 .cfa: $rsp 16 +
STACK CFI 132f2 .cfa: $rsp 8 +
STACK CFI 132f8 .cfa: $rsp 208 +
STACK CFI INIT 13340 24 .cfa: $rsp 8 + .ra: .cfa -8 + ^
STACK CFI 13343 $rbx: .cfa -16 + ^ .cfa: $rsp 16 +
STACK CFI 1335f .cfa: $rsp 8 +
STACK CFI 13360 .cfa: $rsp 16 +
STACK CFI 13363 .cfa: $rsp 8 +
STACK CFI INIT 133a0 155 .cfa: $rsp 8 + .ra: .cfa -8 + ^
STACK CFI 133a2 $r15: .cfa -16 + ^ .cfa: $rsp 16 +
STACK CFI 133aa $r14: .cfa -24 + ^ .cfa: $rsp 24 +
STACK CFI 133ac $r13: .cfa -32 + ^ .cfa: $rsp 32 +
STACK CFI 133ae $r12: .cfa -40 + ^ .cfa: $rsp 40 +
STACK CFI 133af $rbp: .cfa -48 + ^ .cfa: $rsp 48 +
STACK CFI 133ba $rbx: .cfa -56 + ^ .cfa: $rsp 56 +
STACK CFI 13409 .cfa: $rsp 48 +
STACK CFI 1340a .cfa: $rsp 40 +
STACK CFI 1340c .cfa: $rsp 32 +
STACK CFI 1340e .cfa: $rsp 24 +
STACK CFI 13410 .cfa: $rsp 16 +
STACK CFI 13412 .cfa: $rsp 8 +
STACK CFI 13418 .cfa: $rsp 56 +
STACK CFI INIT 13500 8 .cfa: $rsp 8 + .ra: .cfa -8 + ^
STACK CFI INIT 13510 386 .cfa: $rsp 8 + .ra: .cfa -8 + ^
STACK CFI INIT 138a0 8 .cfa: $rsp 8 + .ra: .cfa -8 + ^
STACK CFI INIT 138b0 8 .cfa: $rsp 8 + .ra: .cfa -8 + ^
STACK CFI INIT 138c0 2e6 .cfa: $rsp 8 + .ra: .cfa -8 + ^
STACK CFI INIT 13bb0 d7 .cfa: $rsp 8 + .ra: .cfa -8 + ^
STACK CFI INIT 13c90 105 .cfa: $rsp 8 + .ra: .cfa -8 + ^
STACK CFI 13c91 $rbp: .cfa -16 + ^ .cfa: $rsp 16 +
STACK CFI 13c95 $rbx: .cfa -24 + ^ .cfa: $rsp 24 +
STACK CFI 13d19 .cfa: $rsp 16 +
STACK CFI 13d20 .cfa: $rsp 8 +
STACK CFI 13d28 .cfa: $rsp 24 +
STACK CFI 13d77 .cfa: $rsp 16 +
STACK CFI 13d83 .cfa: $rsp 8 +
STACK CFI 13d84 .cfa: $rsp 24 +
STACK CFI INIT 13da0 e6 .cfa: $rsp 8 + .ra: .cfa -8 + ^
STACK CFI 13db1 $r12: .cfa -16 + ^ .cfa: $rsp 16 +
STACK CFI 13db2 $rbp: .cfa -24 + ^ .cfa: $rsp 24 +
STACK CFI 13db3 $rbx: .cfa -32 + ^ .cfa: $rsp 32 +
STACK CFI 13e29 $rbx: $rbx .cfa: $rsp 24 +
STACK CFI 13e2a $rbp: $rbp .cfa: $rsp 16 +
STACK CFI 13e37 $r12: $r12 .cfa: $rsp 8 +
STACK CFI 13e40 $r12: .cfa -16 + ^ $rbp: .cfa -24 + ^ $rbx: .cfa -32 + ^ .cfa: $rsp 32 +
STACK CFI 13e4b $rbx: $rbx .cfa: $rsp 24 +
STACK CFI 13e4c $rbp: $rbp .cfa: $rsp 16 +
STACK CFI 13e59 $r12: $r12 .cfa: $rsp 8 +
STACK CFI 13e60 $r12: .cfa -16 + ^ $rbp: .cfa -24 + ^ $rbx: .cfa -32 + ^ .cfa: $rsp 32 +
STACK CFI 13e61 $rbx: $rbx .cfa: $rsp 24 +
STACK CFI 13e62 $rbp: $rbp .cfa: $rsp 16 +
STACK CFI 13e6c $r12: $r12 .cfa: $rsp 8 +
STACK CFI 13e6d $r12: .cfa -16 + ^ $rbp: .cfa -24 + ^ $rbx: .cfa -32 + ^ .cfa: $rsp 32 +
STACK CFI 13e6e $rbx: $rbx .cfa: $rsp 24 +
STACK CFI 13e6f $rbp: $rbp .cfa: $rsp 16 +
STACK CFI 13e7c $r12: $r12 .cfa: $rsp 8 +
STACK CFI INIT 13e90 1fa .cfa: $rsp 8 + .ra: .cfa -8 + ^
STACK CFI 13e92 $r13: .cfa -16 + ^ .cfa: $rsp 16 +
STACK CFI 13e97 $r12: .cfa -24 + ^ .cfa: $rsp 24 +
STACK CFI 13e9b $rbp: .cfa -32 + ^ .cfa: $rsp 32 +
STACK CFI 13e9f $rbx: .cfa -40 + ^ .cfa: $rsp 40 +
STACK CFI 13f6e .cfa: $rsp 32 +
STACK CFI 13f77 .cfa: $rsp 24 +
STACK CFI 13f79 .cfa: $rsp 16 +
STACK CFI 13f7b .cfa: $rsp 8 +
STACK CFI 13f80 .cfa: $rsp 40 +
STACK CFI 13fca .cfa: $rsp 32 +
STACK CFI 13fd6 .cfa: $rsp 24 +
STACK CFI 13fd8 .cfa: $rsp 16 +
STACK CFI 13fda .cfa: $rsp 8 +
STACK CFI 13fdb .cfa: $rsp 40 +
STACK CFI 13fdc .cfa: $rsp 32 +
STACK CFI 13fe8 .cfa: $rsp 24 +
STACK CFI 13fea .cfa: $rsp 16 +
STACK CFI 13fec .cfa: $rsp 8 +
STACK CFI 13fed .cfa: $rsp 40 +
STACK CFI 14021 .cfa: $rsp 32 +
STACK CFI 14030 .cfa: $rsp 24 +
STACK CFI 14032 .cfa: $rsp 16 +
STACK CFI 14034 .cfa: $rsp 8 +
STACK CFI 14035 .cfa: $rsp 40 +
STACK CFI INIT 14090 2b .cfa: $rsp 8 + .ra: .cfa -8 + ^
STACK CFI INIT 140c0 27f .cfa: $rsp 8 + .ra: .cfa -8 + ^
STACK CFI 140c2 $r15: .cfa -16 + ^ .cfa: $rsp 16 +
STACK CFI 140c4 $r14: .cfa -24 + ^ .cfa: $rsp 24 +
STACK CFI 140c6 $r13: .cfa -32 + ^ .cfa: $rsp 32 +
STACK CFI 140c8 $r12: .cfa -40 + ^ .cfa: $rsp 40 +
STACK CFI 140c9 $rbp: .cfa -48 + ^ .cfa: $rsp 48 +
STACK CFI 140ca $rbx: .cfa -56 + ^ .cfa: $rsp 56 +
STACK CFI 140ce .cfa: $rsp 96 +
STACK CFI 14234 .cfa: $rsp 56 +
STACK CFI 14235 .cfa: $rsp 48 +
STACK CFI 14236 .cfa: $rsp 40 +
STACK CFI 14238 .cfa: $rsp 32 +
STACK CFI 1423a .cfa: $rsp 24 +
STACK CFI 1423c .cfa: $rsp 16 +
STACK CFI 1423e .cfa: $rsp 8 +
STACK CFI 14240 .cfa: $rsp 96 +
STACK CFI INIT 14340 1c3 .cfa: $rsp 8 + .ra: .cfa -8 + ^
STACK CFI 14342 $r14: .cfa -16 + ^ .cfa: $rsp 16 +
STACK CFI 14349 $r13: .cfa -24 + ^ .cfa: $rsp 24 +
STACK CFI 1434e $r12: .cfa -32 + ^ .cfa: $rsp 32 +
STACK CFI 1434f $rbp: .cfa -40 + ^ .cfa: $rsp 40 +
STACK CFI 14350 $rbx: .cfa -48 + ^ .cfa: $rsp 48 +
STACK CFI 1448c .cfa: $rsp 40 +
STACK CFI 1448d .cfa: $rsp 32 +
STACK CFI 1448f .cfa: $rsp 24 +
STACK CFI 14491 .cfa: $rsp 16 +
STACK CFI 14493 .cfa: $rsp 8 +
STACK CFI 14498 .cfa: $rsp 48 +
STACK CFI 144bc .cfa: $rsp 40 +
STACK CFI 144bd .cfa: $rsp 32 +
STACK CFI 144bf .cfa: $rsp 24 +
STACK CFI 144c1 .cfa: $rsp 16 +
STACK CFI 144c3 .cfa: $rsp 8 +
STACK CFI 144c4 .cfa: $rsp 48 +
STACK CFI 144da .cfa: $rsp 40 +
STACK CFI 144db .cfa: $rsp 32 +
STACK CFI 144dd .cfa: $rsp 24 +
STACK CFI 144df .cfa: $rsp 16 +
STACK CFI 144e1 .cfa: $rsp 8 +
STACK CFI 144e2 .cfa: $rsp 48 +
STACK CFI INIT 14510 2a7 .cfa: $rsp 8 + .ra: .cfa -8 + ^
STACK CFI 14512 $r15: .cfa -16 + ^ .cfa: $rsp 16 +
STACK CFI 14514 $r14: .cfa -24 + ^ .cfa: $rsp 24 +
STACK CFI 14516 $r13: .cfa -32 + ^ .cfa: $rsp 32 +
STACK CFI 14518 $r12: .cfa -40 + ^ .cfa: $rsp 40 +
STACK CFI 14519 $rbp: .cfa -48 + ^ .cfa: $rsp 48 +
STACK CFI 1451a $rbx: .cfa -56 + ^ .cfa: $rsp 56 +
STACK CFI 1451e .cfa: $rsp 104 +
STACK CFI 146bc .cfa: $rsp 56 +
STACK CFI 146bd .cfa: $rsp 48 +
STACK CFI 146be .cfa: $rsp 40 +
STACK CFI 146c0 .cfa: $rsp 32 +
STACK CFI 146c2 .cfa: $rsp 24 +
STACK CFI 146c4 .cfa: $rsp 16 +
STACK CFI 146c6 .cfa: $rsp 8 +
STACK CFI 146d0 .cfa: $rsp 104 +
STACK CFI INIT 147c0 65 .cfa: $rsp 8 + .ra: .cfa -8 + ^
STACK CFI 147c2 $r15: .cfa -16 + ^ .cfa: $rsp 16 +
STACK CFI 147c7 $r14: .cfa -24 + ^ .cfa: $rsp 24 +
STACK CFI 147cc $r13: .cfa -32 + ^ .cfa: $rsp 32 +
STACK CFI 147d1 $r12: .cfa -40 + ^ .cfa: $rsp 40 +
STACK CFI 147d9 $rbp: .cfa -48 + ^ .cfa: $rsp 48 +
STACK CFI 147e1 $rbx: .cfa -56 + ^ .cfa: $rsp 56 +
STACK CFI 147ee .cfa: $rsp 64 +
STACK CFI 1481a .cfa: $rsp 56 +
STACK CFI 1481b .cfa: $rsp 48 +
STACK CFI 1481c .cfa: $rsp 40 +
STACK CFI 1481e .cfa: $rsp 32 +
STACK CFI 14820 .cfa: $rsp 24 +
STACK CFI 14822 .cfa: $rsp 16 +
STACK CFI 14824 .cfa: $rsp 8 +
STACK CFI INIT 14830 2 .cfa: $rsp 8 + .ra: .cfa -8 + ^
